(imatplotlib.font_manager
FontManager
p1
(dp2
S'afm_lookup_cache'
p3
(dp4
sS'ttflist'
p5
(lp6
ccopy_reg
_reconstructor
p7
(cmatplotlib.font_manager
FontEntry
p8
c__builtin__
object
p9
NtRp10
(dp11
S'style'
p12
S'normal'
p13
sS'name'
p14
S'cmex10'
p15
sS'weight'
p16
I400
sS'stretch'
p17
g13
sS'variant'
p18
g13
sS'fname'
p19
S'/System/Library/Frameworks/Python.framework/Versions/2.7/Extras/lib/python/matplotlib/mpl-data/fonts/ttf/cmex10.ttf'
p20
sS'size'
p21
S'scalable'
p22
sbag7
(g8
g9
NtRp23
(dp24
g12
S'oblique'
p25
sg14
S'Bitstream Vera Sans'
p26
sg16
I700
sg17
g13
sg18
g13
sg19
S'/System/Library/Frameworks/Python.framework/Versions/2.7/Extras/lib/python/matplotlib/mpl-data/fonts/ttf/VeraBI.ttf'
p27
sg21
g22
sbag7
(g8
g9
NtRp28
(dp29
g12
g13
sg14
S'STIXNonUnicode'
p30
sg16
I400
sg17
g13
sg18
g13
sg19
S'/System/Library/Frameworks/Python.framework/Versions/2.7/Extras/lib/python/matplotlib/mpl-data/fonts/ttf/STIXNonUni.ttf'
p31
sg21
g22
sbag7
(g8
g9
NtRp32
(dp33
g12
g13
sg14
S'STIXNonUnicode'
p34
sg16
I700
sg17
g13
sg18
g13
sg19
S'/System/Library/Frameworks/Python.framework/Versions/2.7/Extras/lib/python/matplotlib/mpl-data/fonts/ttf/STIXNonUniBol.ttf'
p35
sg21
g22
sbag7
(g8
g9
NtRp36
(dp37
g12
g13
sg14
S'Bitstream Vera Sans Mono'
p38
sg16
I700
sg17
g13
sg18
g13
sg19
S'/System/Library/Frameworks/Python.framework/Versions/2.7/Extras/lib/python/matplotlib/mpl-data/fonts/ttf/VeraMoBd.ttf'
p39
sg21
g22
sbag7
(g8
g9
NtRp40
(dp41
g12
g13
sg14
S'cmr10'
p42
sg16
I400
sg17
g13
sg18
g13
sg19
S'/System/Library/Frameworks/Python.framework/Versions/2.7/Extras/lib/python/matplotlib/mpl-data/fonts/ttf/cmr10.ttf'
p43
sg21
g22
sbag7
(g8
g9
NtRp44
(dp45
g12
g13
sg14
S'STIXGeneral'
p46
sg16
I400
sg17
g13
sg18
g13
sg19
S'/System/Library/Frameworks/Python.framework/Versions/2.7/Extras/lib/python/matplotlib/mpl-data/fonts/ttf/STIXGeneral.ttf'
p47
sg21
g22
sbag7
(g8
g9
NtRp48
(dp49
g12
g25
sg14
S'Bitstream Vera Sans Mono'
p50
sg16
I400
sg17
g13
sg18
g13
sg19
S'/System/Library/Frameworks/Python.framework/Versions/2.7/Extras/lib/python/matplotlib/mpl-data/fonts/ttf/VeraMoIt.ttf'
p51
sg21
g22
sbag7
(g8
g9
NtRp52
(dp53
g12
g13
sg14
S'Bitstream Vera Serif'
p54
sg16
I400
sg17
g13
sg18
g13
sg19
S'/System/Library/Frameworks/Python.framework/Versions/2.7/Extras/lib/python/matplotlib/mpl-data/fonts/ttf/VeraSe.ttf'
p55
sg21
g22
sbag7
(g8
g9
NtRp56
(dp57
g12
g13
sg14
S'STIXSizeFiveSym'
p58
sg16
I400
sg17
g13
sg18
g13
sg19
S'/System/Library/Frameworks/Python.framework/Versions/2.7/Extras/lib/python/matplotlib/mpl-data/fonts/ttf/STIXSizFiveSymReg.ttf'
p59
sg21
g22
sbag7
(g8
g9
NtRp60
(dp61
g12
g13
sg14
S'Bitstream Vera Sans Mono'
p62
sg16
I400
sg17
g13
sg18
g13
sg19
S'/System/Library/Frameworks/Python.framework/Versions/2.7/Extras/lib/python/matplotlib/mpl-data/fonts/ttf/VeraMono.ttf'
p63
sg21
g22
sbag7
(g8
g9
NtRp64
(dp65
g12
g25
sg14
S'Bitstream Vera Sans Mono'
p66
sg16
I700
sg17
g13
sg18
g13
sg19
S'/System/Library/Frameworks/Python.framework/Versions/2.7/Extras/lib/python/matplotlib/mpl-data/fonts/ttf/VeraMoBI.ttf'
p67
sg21
g22
sbag7
(g8
g9
NtRp68
(dp69
g12
g13
sg14
S'STIXGeneral'
p70
sg16
I700
sg17
g13
sg18
g13
sg19
S'/System/Library/Frameworks/Python.framework/Versions/2.7/Extras/lib/python/matplotlib/mpl-data/fonts/ttf/STIXGeneralBol.ttf'
p71
sg21
g22
sbag7
(g8
g9
NtRp72
(dp73
g12
S'italic'
p74
sg14
S'STIXGeneral'
p75
sg16
I400
sg17
g13
sg18
g13
sg19
S'/System/Library/Frameworks/Python.framework/Versions/2.7/Extras/lib/python/matplotlib/mpl-data/fonts/ttf/STIXGeneralItalic.ttf'
p76
sg21
g22
sbag7
(g8
g9
NtRp77
(dp78
g12
g13
sg14
S'STIXSizeFourSym'
p79
sg16
I400
sg17
g13
sg18
g13
sg19
S'/System/Library/Frameworks/Python.framework/Versions/2.7/Extras/lib/python/matplotlib/mpl-data/fonts/ttf/STIXSizFourSymReg.ttf'
p80
sg21
g22
sbag7
(g8
g9
NtRp81
(dp82
g12
g13
sg14
S'STIXSizeThreeSym'
p83
sg16
I700
sg17
g13
sg18
g13
sg19
S'/System/Library/Frameworks/Python.framework/Versions/2.7/Extras/lib/python/matplotlib/mpl-data/fonts/ttf/STIXSizThreeSymBol.ttf'
p84
sg21
g22
sbag7
(g8
g9
NtRp85
(dp86
g12
g13
sg14
S'STIXSizeOneSym'
p87
sg16
I700
sg17
g13
sg18
g13
sg19
S'/System/Library/Frameworks/Python.framework/Versions/2.7/Extras/lib/python/matplotlib/mpl-data/fonts/ttf/STIXSizOneSymBol.ttf'
p88
sg21
g22
sbag7
(g8
g9
NtRp89
(dp90
g12
g13
sg14
S'STIXSizeFourSym'
p91
sg16
I700
sg17
g13
sg18
g13
sg19
S'/System/Library/Frameworks/Python.framework/Versions/2.7/Extras/lib/python/matplotlib/mpl-data/fonts/ttf/STIXSizFourSymBol.ttf'
p92
sg21
g22
sbag7
(g8
g9
NtRp93
(dp94
g12
g13
sg14
S'Bitstream Vera Sans'
p95
sg16
I700
sg17
g13
sg18
g13
sg19
S'/System/Library/Frameworks/Python.framework/Versions/2.7/Extras/lib/python/matplotlib/mpl-data/fonts/ttf/VeraBd.ttf'
p96
sg21
g22
sbag7
(g8
g9
NtRp97
(dp98
g12
g13
sg14
S'cmsy10'
p99
sg16
I400
sg17
g13
sg18
g13
sg19
S'/System/Library/Frameworks/Python.framework/Versions/2.7/Extras/lib/python/matplotlib/mpl-data/fonts/ttf/cmsy10.ttf'
p100
sg21
g22
sbag7
(g8
g9
NtRp101
(dp102
g12
g13
sg14
S'STIXSizeTwoSym'
p103
sg16
I400
sg17
g13
sg18
g13
sg19
S'/System/Library/Frameworks/Python.framework/Versions/2.7/Extras/lib/python/matplotlib/mpl-data/fonts/ttf/STIXSizTwoSymReg.ttf'
p104
sg21
g22
sbag7
(g8
g9
NtRp105
(dp106
g12
g74
sg14
S'STIXNonUnicode'
p107
sg16
I700
sg17
g13
sg18
g13
sg19
S'/System/Library/Frameworks/Python.framework/Versions/2.7/Extras/lib/python/matplotlib/mpl-data/fonts/ttf/STIXNonUniBolIta.ttf'
p108
sg21
g22
sbag7
(g8
g9
NtRp109
(dp110
g12
g13
sg14
S'cmb10'
p111
sg16
I400
sg17
g13
sg18
g13
sg19
S'/System/Library/Frameworks/Python.framework/Versions/2.7/Extras/lib/python/matplotlib/mpl-data/fonts/ttf/cmb10.ttf'
p112
sg21
g22
sbag7
(g8
g9
NtRp113
(dp114
g12
g13
sg14
S'cmmi10'
p115
sg16
I400
sg17
g13
sg18
g13
sg19
S'/System/Library/Frameworks/Python.framework/Versions/2.7/Extras/lib/python/matplotlib/mpl-data/fonts/ttf/cmmi10.ttf'
p116
sg21
g22
sbag7
(g8
g9
NtRp117
(dp118
g12
g25
sg14
S'Bitstream Vera Sans'
p119
sg16
I400
sg17
g13
sg18
g13
sg19
S'/System/Library/Frameworks/Python.framework/Versions/2.7/Extras/lib/python/matplotlib/mpl-data/fonts/ttf/VeraIt.ttf'
p120
sg21
g22
sbag7
(g8
g9
NtRp121
(dp122
g12
g13
sg14
S'STIXSizeOneSym'
p123
sg16
I400
sg17
g13
sg18
g13
sg19
S'/System/Library/Frameworks/Python.framework/Versions/2.7/Extras/lib/python/matplotlib/mpl-data/fonts/ttf/STIXSizOneSymReg.ttf'
p124
sg21
g22
sbag7
(g8
g9
NtRp125
(dp126
g12
g13
sg14
S'Bitstream Vera Sans'
p127
sg16
I400
sg17
g13
sg18
g13
sg19
S'/System/Library/Frameworks/Python.framework/Versions/2.7/Extras/lib/python/matplotlib/mpl-data/fonts/ttf/Vera.ttf'
p128
sg21
g22
sbag7
(g8
g9
NtRp129
(dp130
g12
g13
sg14
S'cmss10'
p131
sg16
I400
sg17
g13
sg18
g13
sg19
S'/System/Library/Frameworks/Python.framework/Versions/2.7/Extras/lib/python/matplotlib/mpl-data/fonts/ttf/cmss10.ttf'
p132
sg21
g22
sbag7
(g8
g9
NtRp133
(dp134
g12
g13
sg14
S'Bitstream Vera Serif'
p135
sg16
I700
sg17
g13
sg18
g13
sg19
S'/System/Library/Frameworks/Python.framework/Versions/2.7/Extras/lib/python/matplotlib/mpl-data/fonts/ttf/VeraSeBd.ttf'
p136
sg21
g22
sbag7
(g8
g9
NtRp137
(dp138
g12
g13
sg14
S'STIXSizeTwoSym'
p139
sg16
I700
sg17
g13
sg18
g13
sg19
S'/System/Library/Frameworks/Python.framework/Versions/2.7/Extras/lib/python/matplotlib/mpl-data/fonts/ttf/STIXSizTwoSymBol.ttf'
p140
sg21
g22
sbag7
(g8
g9
NtRp141
(dp142
g12
g74
sg14
S'STIXNonUnicode'
p143
sg16
I400
sg17
g13
sg18
g13
sg19
S'/System/Library/Frameworks/Python.framework/Versions/2.7/Extras/lib/python/matplotlib/mpl-data/fonts/ttf/STIXNonUniIta.ttf'
p144
sg21
g22
sbag7
(g8
g9
NtRp145
(dp146
g12
g13
sg14
S'cmtt10'
p147
sg16
I400
sg17
g13
sg18
g13
sg19
S'/System/Library/Frameworks/Python.framework/Versions/2.7/Extras/lib/python/matplotlib/mpl-data/fonts/ttf/cmtt10.ttf'
p148
sg21
g22
sbag7
(g8
g9
NtRp149
(dp150
g12
g74
sg14
S'STIXGeneral'
p151
sg16
I700
sg17
g13
sg18
g13
sg19
S'/System/Library/Frameworks/Python.framework/Versions/2.7/Extras/lib/python/matplotlib/mpl-data/fonts/ttf/STIXGeneralBolIta.ttf'
p152
sg21
g22
sbag7
(g8
g9
NtRp153
(dp154
g12
g13
sg14
S'STIXSizeThreeSym'
p155
sg16
I400
sg17
g13
sg18
g13
sg19
S'/System/Library/Frameworks/Python.framework/Versions/2.7/Extras/lib/python/matplotlib/mpl-data/fonts/ttf/STIXSizThreeSymReg.ttf'
p156
sg21
g22
sbag7
(g8
g9
NtRp157
(dp158
g12
g13
sg14
S'.SF NS Display Condensed'
p159
sg16
I400
sg17
g13
sg18
g13
sg19
S'/System/Library/Fonts/SFNSDisplayCondensed-Regular.otf'
p160
sg21
g22
sbag7
(g8
g9
NtRp161
(dp162
g12
g74
sg14
S'Trebuchet MS'
p163
sg16
I400
sg17
g13
sg18
g13
sg19
S'/Library/Fonts/Trebuchet MS Italic.ttf'
p164
sg21
g22
sbag7
(g8
g9
NtRp165
(dp166
g12
g13
sg14
S'Calibri'
p167
sg16
I400
sg17
g13
sg18
g13
sg19
S'/Users/danieh65/Library/Fonts/Calibri.ttf'
p168
sg21
g22
sbag7
(g8
g9
NtRp169
(dp170
g12
g13
sg14
S'Hoefler Text'
p171
sg16
I400
sg17
g13
sg18
g13
sg19
S'/Library/Fonts/Hoefler Text Ornaments.ttf'
p172
sg21
g22
sbag7
(g8
g9
NtRp173
(dp174
g12
g13
sg14
S'Kozuka Gothic Pr6N'
p175
sg16
I400
sg17
g13
sg18
g13
sg19
S'/Library/Fonts/KozGoPr6N-ExtraLight.otf'
p176
sg21
g22
sbag7
(g8
g9
NtRp177
(dp178
g12
g13
sg14
S'Times New Roman'
p179
sg16
I500
sg17
g13
sg18
g13
sg19
S'/Library/Fonts/Times New Roman.ttf'
p180
sg21
g22
sbag7
(g8
g9
NtRp181
(dp182
g12
g74
sg14
S'Adobe Arabic'
p183
sg16
I400
sg17
g13
sg18
g13
sg19
S'/Library/Fonts/AdobeArabic-Italic.otf'
p184
sg21
g22
sbag7
(g8
g9
NtRp185
(dp186
g12
g13
sg14
S'Kozuka Gothic Pro'
p187
sg16
I700
sg17
g13
sg18
g13
sg19
S'/Library/Fonts/KozGoPro-Bold.otf'
p188
sg21
g22
sbag7
(g8
g9
NtRp189
(dp190
g12
g74
sg14
S'Myriad Pro'
p191
sg16
I400
sg17
S'condensed'
p192
sg18
g13
sg19
S'/Library/Fonts/MyriadPro-CondIt.otf'
p193
sg21
g22
sbag7
(g8
g9
NtRp194
(dp195
g12
g13
sg14
S'OCR A Std'
p196
sg16
I400
sg17
g13
sg18
g13
sg19
S'/Library/Fonts/OCRAStd.otf'
p197
sg21
g22
sbag7
(g8
g9
NtRp198
(dp199
g12
g13
sg14
S'Rosewood Std'
p200
sg16
I400
sg17
g13
sg18
g13
sg19
S'/Library/Fonts/RosewoodStd-Regular.otf'
p201
sg21
g22
sbag7
(g8
g9
NtRp202
(dp203
g12
g13
sg14
S'Kozuka Gothic Pro'
p204
sg16
I400
sg17
g13
sg18
g13
sg19
S'/Library/Fonts/KozGoPro-Medium.otf'
p205
sg21
g22
sbag7
(g8
g9
NtRp206
(dp207
g12
g13
sg14
S'Verdana'
p208
sg16
I700
sg17
g13
sg18
g13
sg19
S'/Library/Fonts/Verdana Bold.ttf'
p209
sg21
g22
sbag7
(g8
g9
NtRp210
(dp211
g12
g13
sg14
S'Poplar Std'
p212
sg16
I900
sg17
g13
sg18
g13
sg19
S'/Library/Fonts/PoplarStd.otf'
p213
sg21
g22
sbag7
(g8
g9
NtRp214
(dp215
g12
g13
sg14
S'.SF Compact Rounded'
p216
sg16
I400
sg17
g13
sg18
g13
sg19
S'/System/Library/Fonts/SFCompactRounded-Medium.otf'
p217
sg21
g22
sbag7
(g8
g9
NtRp218
(dp219
g12
g13
sg14
S'Adobe Arabic'
p220
sg16
I700
sg17
g13
sg18
g13
sg19
S'/Library/Fonts/AdobeArabic-Bold.otf'
p221
sg21
g22
sbag7
(g8
g9
NtRp222
(dp223
g12
g13
sg14
S'Arial Unicode MS'
p224
sg16
I400
sg17
g13
sg18
g13
sg19
S'/Library/Fonts/Arial Unicode.ttf'
p225
sg21
g22
sbag7
(g8
g9
NtRp226
(dp227
g12
g13
sg14
S'STIXSizeThreeSym'
p228
sg16
I400
sg17
g13
sg18
g13
sg19
S'/Library/Fonts/STIXSizThreeSymReg.otf'
p229
sg21
g22
sbag7
(g8
g9
NtRp230
(dp231
g12
g13
sg14
S'Kozuka Gothic Pr6N'
p232
sg16
I700
sg17
g13
sg18
g13
sg19
S'/Library/Fonts/KozGoPr6N-Heavy.otf'
p233
sg21
g22
sbag7
(g8
g9
NtRp234
(dp235
g12
g13
sg14
S'DIN Condensed'
p236
sg16
I700
sg17
g192
sg18
g13
sg19
S'/Library/Fonts/DIN Condensed Bold.ttf'
p237
sg21
g22
sbag7
(g8
g9
NtRp238
(dp239
g12
g13
sg14
S'Adobe Kaiti Std'
p240
sg16
I400
sg17
g13
sg18
g13
sg19
S'/Library/Fonts/AdobeKaitiStd-Regular.otf'
p241
sg21
g22
sbag7
(g8
g9
NtRp242
(dp243
g12
g74
sg14
S'Corbel'
p244
sg16
I400
sg17
g13
sg18
g13
sg19
S'/Users/danieh65/Library/Fonts/Corbel Italic.ttf'
p245
sg21
g22
sbag7
(g8
g9
NtRp246
(dp247
g12
g13
sg14
S'System Font'
p248
sg16
I400
sg17
g13
sg18
g13
sg19
S'/System/Library/Fonts/SFNSDisplay-BoldItalic.otf'
p249
sg21
g22
sbag7
(g8
g9
NtRp250
(dp251
g12
g74
sg14
S'Chaparral Pro'
p252
sg16
I200
sg17
g13
sg18
g13
sg19
S'/Library/Fonts/ChaparralPro-LightIt.otf'
p253
sg21
g22
sbag7
(g8
g9
NtRp254
(dp255
g12
g74
sg14
S'Adobe Devanagari'
p256
sg16
I400
sg17
g13
sg18
g13
sg19
S'/Library/Fonts/AdobeDevanagari-Italic.otf'
p257
sg21
g22
sbag7
(g8
g9
NtRp258
(dp259
g12
g13
sg14
S'Gurmukhi MT'
p260
sg16
I400
sg17
g13
sg18
g13
sg19
S'/Library/Fonts/Gurmukhi.ttf'
p261
sg21
g22
sbag7
(g8
g9
NtRp262
(dp263
g12
g13
sg14
S'Myriad Arabic'
p264
sg16
I400
sg17
g13
sg18
g13
sg19
S'/Library/Fonts/MyriadArabic-Regular.otf'
p265
sg21
g22
sbag7
(g8
g9
NtRp266
(dp267
g12
g13
sg14
S'Kozuka Mincho Pr6N'
p268
sg16
I400
sg17
g13
sg18
g13
sg19
S'/Library/Fonts/KozMinPr6N-Regular.otf'
p269
sg21
g22
sbag7
(g8
g9
NtRp270
(dp271
g12
g13
sg14
S'Arial Rounded MT Bold'
p272
sg16
I700
sg17
g13
sg18
g13
sg19
S'/Library/Fonts/Arial Rounded Bold.ttf'
p273
sg21
g22
sbag7
(g8
g9
NtRp274
(dp275
g12
g13
sg14
S'AppleGothic'
p276
sg16
I400
sg17
g13
sg18
g13
sg19
S'/Library/Fonts/AppleGothic.ttf'
p277
sg21
g22
sbag7
(g8
g9
NtRp278
(dp279
g12
g13
sg14
S'.SF NS Text Condensed'
p280
sg16
I400
sg17
g13
sg18
g13
sg19
S'/System/Library/Fonts/SFNSTextCondensed-Heavy.otf'
p281
sg21
g22
sbag7
(g8
g9
NtRp282
(dp283
g12
g74
sg14
S'Letter Gothic Std'
p284
sg16
I400
sg17
g13
sg18
g13
sg19
S'/Library/Fonts/LetterGothicStd-Slanted.otf'
p285
sg21
g22
sbag7
(g8
g9
NtRp286
(dp287
g12
g13
sg14
S'Andale Mono'
p288
sg16
I400
sg17
g13
sg18
g13
sg19
S'/Library/Fonts/Andale Mono.ttf'
p289
sg21
g22
sbag7
(g8
g9
NtRp290
(dp291
g12
g13
sg14
S'.SF NS Text Condensed'
p292
sg16
I400
sg17
g13
sg18
g13
sg19
S'/System/Library/Fonts/SFNSTextCondensed-Bold.otf'
p293
sg21
g22
sbag7
(g8
g9
NtRp294
(dp295
g12
g13
sg14
S'Consolas'
p296
sg16
I700
sg17
g13
sg18
g13
sg19
S'/Users/danieh65/Library/Fonts/Consolas Bold.ttf'
p297
sg21
g22
sbag7
(g8
g9
NtRp298
(dp299
g12
g13
sg14
S'STIXNonUnicode'
p300
sg16
I700
sg17
g13
sg18
g13
sg19
S'/Library/Fonts/STIXNonUniBol.otf'
p301
sg21
g22
sbag7
(g8
g9
NtRp302
(dp303
g12
g13
sg14
S'Constantia'
p304
sg16
I700
sg17
g13
sg18
g13
sg19
S'/Users/danieh65/Library/Fonts/Constantia Bold.ttf'
p305
sg21
g22
sbag7
(g8
g9
NtRp306
(dp307
g12
g13
sg14
S'.SF NS Display Condensed'
p308
sg16
I400
sg17
g13
sg18
g13
sg19
S'/System/Library/Fonts/SFNSDisplayCondensed-Bold.otf'
p309
sg21
g22
sbag7
(g8
g9
NtRp310
(dp311
g12
g13
sg14
S'.SF Compact Rounded'
p312
sg16
I400
sg17
g13
sg18
g13
sg19
S'/System/Library/Fonts/SFCompactRounded-Black.otf'
p313
sg21
g22
sbag7
(g8
g9
NtRp314
(dp315
g12
g74
sg14
S'Calibri'
p316
sg16
I700
sg17
g13
sg18
g13
sg19
S'/Users/danieh65/Library/Fonts/Calibri Bold Italic.ttf'
p317
sg21
g22
sbag7
(g8
g9
NtRp318
(dp319
g12
g74
sg14
S'Nueva Std'
p320
sg16
I400
sg17
g192
sg18
g13
sg19
S'/Library/Fonts/NuevaStd-CondItalic.otf'
p321
sg21
g22
sbag7
(g8
g9
NtRp322
(dp323
g12
g13
sg14
S'Nueva Std'
p324
sg16
I400
sg17
g192
sg18
g13
sg19
S'/Library/Fonts/NuevaStd-Cond.otf'
p325
sg21
g22
sbag7
(g8
g9
NtRp326
(dp327
g12
g13
sg14
S'1979 Dot Matrix'
p328
sg16
I400
sg17
g13
sg18
g13
sg19
S'/Users/danieh65/Library/Fonts/1979_dot_matrix.ttf'
p329
sg21
g22
sbag7
(g8
g9
NtRp330
(dp331
g12
g13
sg14
S'.SF Compact Rounded'
p332
sg16
I400
sg17
g13
sg18
g13
sg19
S'/System/Library/Fonts/SFCompactRounded-Ultralight.otf'
p333
sg21
g22
sbag7
(g8
g9
NtRp334
(dp335
g12
g13
sg14
S'.SF NS Display Condensed'
p336
sg16
I400
sg17
g13
sg18
g13
sg19
S'/System/Library/Fonts/SFNSDisplayCondensed-Semibold.otf'
p337
sg21
g22
sbag7
(g8
g9
NtRp338
(dp339
g12
g13
sg14
S'AppleMyungjo'
p340
sg16
I400
sg17
g13
sg18
g13
sg19
S'/Library/Fonts/AppleMyungjo.ttf'
p341
sg21
g22
sbag7
(g8
g9
NtRp342
(dp343
g12
g13
sg14
S'.SF Compact Display'
p344
sg16
I400
sg17
g13
sg18
g13
sg19
S'/System/Library/Fonts/SFCompactDisplay-Bold.otf'
p345
sg21
g22
sbag7
(g8
g9
NtRp346
(dp347
g12
g13
sg14
S'Mishafi Gold'
p348
sg16
I400
sg17
g13
sg18
g13
sg19
S'/Library/Fonts/Mishafi Gold.ttf'
p349
sg21
g22
sbag7
(g8
g9
NtRp350
(dp351
g12
g13
sg14
S'Constantia'
p352
sg16
I400
sg17
g13
sg18
g13
sg19
S'/Users/danieh65/Library/Fonts/Constantia.ttf'
p353
sg21
g22
sbag7
(g8
g9
NtRp354
(dp355
g12
g13
sg14
S'Zapf Dingbats'
p356
sg16
I400
sg17
g13
sg18
g13
sg19
S'/System/Library/Fonts/ZapfDingbats.ttf'
p357
sg21
g22
sbag7
(g8
g9
NtRp358
(dp359
g12
g13
sg14
S'.SF Compact Rounded'
p360
sg16
I400
sg17
g13
sg18
g13
sg19
S'/System/Library/Fonts/SFCompactRounded-Semibold.otf'
p361
sg21
g22
sbag7
(g8
g9
NtRp362
(dp363
g12
g13
sg14
S'Calibri'
p364
sg16
I700
sg17
g13
sg18
g13
sg19
S'/Users/danieh65/Library/Fonts/Calibri Bold.ttf'
p365
sg21
g22
sbag7
(g8
g9
NtRp366
(dp367
g12
g13
sg14
S'.SF Compact Text'
p368
sg16
I400
sg17
g13
sg18
g13
sg19
S'/System/Library/Fonts/SFCompactText-BoldItalic.otf'
p369
sg21
g22
sbag7
(g8
g9
NtRp370
(dp371
g12
g13
sg14
S'Herculanum'
p372
sg16
I400
sg17
g13
sg18
g13
sg19
S'/Library/Fonts/Herculanum.ttf'
p373
sg21
g22
sbag7
(g8
g9
NtRp374
(dp375
g12
g13
sg14
S'STIXIntegralsD'
p376
sg16
I700
sg17
g13
sg18
g13
sg19
S'/Library/Fonts/STIXIntDBol.otf'
p377
sg21
g22
sbag7
(g8
g9
NtRp378
(dp379
g12
g13
sg14
S'Hobo Std'
p380
sg16
I500
sg17
g13
sg18
g13
sg19
S'/Library/Fonts/HoboStd.otf'
p381
sg21
g22
sbag7
(g8
g9
NtRp382
(dp383
g12
g74
sg14
S'Candara'
p384
sg16
I400
sg17
g13
sg18
g13
sg19
S'/Users/danieh65/Library/Fonts/Candara Italic.ttf'
p385
sg21
g22
sbag7
(g8
g9
NtRp386
(dp387
g12
g13
sg14
S'System Font'
p388
sg16
I400
sg17
g13
sg18
g13
sg19
S'/System/Library/Fonts/SFNSDisplay-BlackItalic.otf'
p389
sg21
g22
sbag7
(g8
g9
NtRp390
(dp391
g12
g13
sg14
S'Myriad Hebrew'
p392
sg16
I400
sg17
g13
sg18
g13
sg19
S'/Library/Fonts/MyriadHebrew-Regular.otf'
p393
sg21
g22
sbag7
(g8
g9
NtRp394
(dp395
g12
g13
sg14
S'DIN Alternate'
p396
sg16
I700
sg17
g13
sg18
g13
sg19
S'/Library/Fonts/DIN Alternate Bold.ttf'
p397
sg21
g22
sbag7
(g8
g9
NtRp398
(dp399
g12
g13
sg14
S'Consolas'
p400
sg16
I400
sg17
g13
sg18
g13
sg19
S'/Users/danieh65/Library/Fonts/Consolas.ttf'
p401
sg21
g22
sbag7
(g8
g9
NtRp402
(dp403
g12
g13
sg14
S'Adobe Garamond Pro'
p404
sg16
I700
sg17
g13
sg18
g13
sg19
S'/Library/Fonts/AGaramondPro-Bold.otf'
p405
sg21
g22
sbag7
(g8
g9
NtRp406
(dp407
g12
g13
sg14
S'Stencil Std'
p408
sg16
I700
sg17
g13
sg18
g13
sg19
S'/Library/Fonts/StencilStd.otf'
p409
sg21
g22
sbag7
(g8
g9
NtRp410
(dp411
g12
g13
sg14
S'STIXSizeThreeSym'
p412
sg16
I700
sg17
g13
sg18
g13
sg19
S'/Library/Fonts/STIXSizThreeSymBol.otf'
p413
sg21
g22
sbag7
(g8
g9
NtRp414
(dp415
g12
g13
sg14
S'System Font'
p416
sg16
I400
sg17
g13
sg18
g13
sg19
S'/System/Library/Fonts/SFNSDisplay.ttf'
p417
sg21
g22
sbag7
(g8
g9
NtRp418
(dp419
g12
g13
sg14
S'Courier New'
p420
sg16
I400
sg17
g13
sg18
g13
sg19
S'/Library/Fonts/Courier New.ttf'
p421
sg21
g22
sbag7
(g8
g9
NtRp422
(dp423
g12
g74
sg14
S'Arial Narrow'
p424
sg16
I700
sg17
g192
sg18
g13
sg19
S'/Library/Fonts/Arial Narrow Bold Italic.ttf'
p425
sg21
g22
sbag7
(g8
g9
NtRp426
(dp427
g12
g13
sg14
S'Luminari'
p428
sg16
I400
sg17
g13
sg18
g13
sg19
S'/Library/Fonts/Luminari.ttf'
p429
sg21
g22
sbag7
(g8
g9
NtRp430
(dp431
g12
g13
sg14
S'Zapfino'
p432
sg16
I400
sg17
g13
sg18
g13
sg19
S'/Library/Fonts/Zapfino.ttf'
p433
sg21
g22
sbag7
(g8
g9
NtRp434
(dp435
g12
g13
sg14
S'Myriad Pro'
p436
sg16
I400
sg17
g13
sg18
g13
sg19
S'/Library/Fonts/MyriadPro-Regular.otf'
p437
sg21
g22
sbag7
(g8
g9
NtRp438
(dp439
g12
g74
sg14
S'Times New Roman'
p440
sg16
I500
sg17
g13
sg18
g13
sg19
S'/Library/Fonts/Times New Roman Italic.ttf'
p441
sg21
g22
sbag7
(g8
g9
NtRp442
(dp443
g12
g13
sg14
S'.SF NS Text Condensed'
p444
sg16
I400
sg17
g13
sg18
g13
sg19
S'/System/Library/Fonts/SFNSTextCondensed-Medium.otf'
p445
sg21
g22
sbag7
(g8
g9
NtRp446
(dp447
g12
g13
sg14
S'Krungthep'
p448
sg16
I400
sg17
g13
sg18
g13
sg19
S'/Library/Fonts/Krungthep.ttf'
p449
sg21
g22
sbag7
(g8
g9
NtRp450
(dp451
g12
g13
sg14
S'.SF NS Display Condensed'
p452
sg16
I400
sg17
g13
sg18
g13
sg19
S'/System/Library/Fonts/SFNSDisplayCondensed-Light.otf'
p453
sg21
g22
sbag7
(g8
g9
NtRp454
(dp455
g12
g13
sg14
S'Apple Symbols'
p456
sg16
I400
sg17
g13
sg18
g13
sg19
S'/System/Library/Fonts/Apple Symbols.ttf'
p457
sg21
g22
sbag7
(g8
g9
NtRp458
(dp459
g12
g13
sg14
S'Apple Braille'
p460
sg16
I400
sg17
g13
sg18
g13
sg19
S'/System/Library/Fonts/Apple Braille Pinpoint 8 Dot.ttf'
p461
sg21
g22
sbag7
(g8
g9
NtRp462
(dp463
g12
g13
sg14
S'Georgia'
p464
sg16
I400
sg17
g13
sg18
g13
sg19
S'/Library/Fonts/Georgia.ttf'
p465
sg21
g22
sbag7
(g8
g9
NtRp466
(dp467
g12
g74
sg14
S'Nueva Std'
p468
sg16
I700
sg17
g192
sg18
g13
sg19
S'/Library/Fonts/NuevaStd-BoldCondItalic.otf'
p469
sg21
g22
sbag7
(g8
g9
NtRp470
(dp471
g12
g13
sg14
S'STIXIntegralsSm'
p472
sg16
I700
sg17
g13
sg18
g13
sg19
S'/Library/Fonts/STIXIntSmBol.otf'
p473
sg21
g22
sbag7
(g8
g9
NtRp474
(dp475
g12
g13
sg14
S'Charlemagne Std'
p476
sg16
I700
sg17
g13
sg18
g13
sg19
S'/Library/Fonts/CharlemagneStd-Bold.otf'
p477
sg21
g22
sbag7
(g8
g9
NtRp478
(dp479
g12
g13
sg14
S'Adobe Naskh'
p480
sg16
I500
sg17
g13
sg18
g13
sg19
S'/Library/Fonts/AdobeNaskh-Medium.otf'
p481
sg21
g22
sbag7
(g8
g9
NtRp482
(dp483
g12
g13
sg14
S'Prestige Elite Std'
p484
sg16
I700
sg17
g13
sg18
g13
sg19
S'/Library/Fonts/PrestigeEliteStd-Bd.otf'
p485
sg21
g22
sbag7
(g8
g9
NtRp486
(dp487
g12
g13
sg14
S'Adobe Ming Std'
p488
sg16
I400
sg17
g13
sg18
g13
sg19
S'/Library/Fonts/AdobeMingStd-Light.otf'
p489
sg21
g22
sbag7
(g8
g9
NtRp490
(dp491
g12
g13
sg14
S'.SF Compact Text'
p492
sg16
I400
sg17
g13
sg18
g13
sg19
S'/System/Library/Fonts/SFCompactText-HeavyItalic.otf'
p493
sg21
g22
sbag7
(g8
g9
NtRp494
(dp495
g12
g13
sg14
S'Myriad Hebrew'
p496
sg16
I700
sg17
g13
sg18
g13
sg19
S'/Library/Fonts/MyriadHebrew-Bold.otf'
p497
sg21
g22
sbag7
(g8
g9
NtRp498
(dp499
g12
g74
sg14
S'Myriad Pro'
p500
sg16
I400
sg17
g13
sg18
g13
sg19
S'/Library/Fonts/MyriadPro-It.otf'
p501
sg21
g22
sbag7
(g8
g9
NtRp502
(dp503
g12
g13
sg14
S'Bradley Hand'
p504
sg16
I700
sg17
g13
sg18
g13
sg19
S'/Library/Fonts/Bradley Hand Bold.ttf'
p505
sg21
g22
sbag7
(g8
g9
NtRp506
(dp507
g12
g74
sg14
S'Cooper Std'
p508
sg16
I900
sg17
g13
sg18
g13
sg19
S'/Library/Fonts/CooperBlackStd-Italic.otf'
p509
sg21
g22
sbag7
(g8
g9
NtRp510
(dp511
g12
g13
sg14
S'Candara'
p512
sg16
I400
sg17
g13
sg18
g13
sg19
S'/Users/danieh65/Library/Fonts/Candara.ttf'
p513
sg21
g22
sbag7
(g8
g9
NtRp514
(dp515
g12
g13
sg14
S'.SF Compact Rounded'
p516
sg16
I400
sg17
g13
sg18
g13
sg19
S'/System/Library/Fonts/SFCompactRounded-Thin.otf'
p517
sg21
g22
sbag7
(g8
g9
NtRp518
(dp519
g12
g13
sg14
S'Cooper Std'
p520
sg16
I900
sg17
g13
sg18
g13
sg19
S'/Library/Fonts/CooperBlackStd.otf'
p521
sg21
g22
sbag7
(g8
g9
NtRp522
(dp523
g12
g13
sg14
S'Arial Narrow'
p524
sg16
I700
sg17
g192
sg18
g13
sg19
S'/Library/Fonts/Arial Narrow Bold.ttf'
p525
sg21
g22
sbag7
(g8
g9
NtRp526
(dp527
g12
g74
sg14
S'Times New Roman'
p528
sg16
I700
sg17
g13
sg18
g13
sg19
S'/Library/Fonts/Times New Roman Bold Italic.ttf'
p529
sg21
g22
sbag7
(g8
g9
NtRp530
(dp531
g12
g74
sg14
S'Minion Pro'
p532
sg16
I400
sg17
g13
sg18
g13
sg19
S'/Library/Fonts/MinionPro-It.otf'
p533
sg21
g22
sbag7
(g8
g9
NtRp534
(dp535
g12
g74
sg14
S'Arial Narrow'
p536
sg16
I400
sg17
g192
sg18
g13
sg19
S'/Library/Fonts/Arial Narrow Italic.ttf'
p537
sg21
g22
sbag7
(g8
g9
NtRp538
(dp539
g12
g13
sg14
S'.SF Compact Rounded'
p540
sg16
I400
sg17
g13
sg18
g13
sg19
S'/System/Library/Fonts/SFCompactRounded-Light.otf'
p541
sg21
g22
sbag7
(g8
g9
NtRp542
(dp543
g12
g13
sg14
S'.SF Compact Display'
p544
sg16
I400
sg17
g13
sg18
g13
sg19
S'/System/Library/Fonts/SFCompactDisplay-Regular.otf'
p545
sg21
g22
sbag7
(g8
g9
NtRp546
(dp547
g12
g13
sg14
S'Kozuka Gothic Pro'
p548
sg16
I400
sg17
g13
sg18
g13
sg19
S'/Library/Fonts/KozGoPro-ExtraLight.otf'
p549
sg21
g22
sbag7
(g8
g9
NtRp550
(dp551
g12
g13
sg14
S'.SF NS Display Condensed'
p552
sg16
I400
sg17
g13
sg18
g13
sg19
S'/System/Library/Fonts/SFNSDisplayCondensed-Ultralight.otf'
p553
sg21
g22
sbag7
(g8
g9
NtRp554
(dp555
g12
g13
sg14
S'Minion Pro'
p556
sg16
I700
sg17
g192
sg18
g13
sg19
S'/Library/Fonts/MinionPro-BoldCn.otf'
p557
sg21
g22
sbag7
(g8
g9
NtRp558
(dp559
g12
g13
sg14
S'System Font'
p560
sg16
I400
sg17
g13
sg18
g13
sg19
S'/System/Library/Fonts/SFNSDisplay-MediumItalic.otf'
p561
sg21
g22
sbag7
(g8
g9
NtRp562
(dp563
g12
g13
sg14
S'Adobe Devanagari'
p564
sg16
I400
sg17
g13
sg18
g13
sg19
S'/Library/Fonts/AdobeDevanagari-Regular.otf'
p565
sg21
g22
sbag7
(g8
g9
NtRp566
(dp567
g12
g13
sg14
S'Apple Braille'
p568
sg16
I400
sg17
g13
sg18
g13
sg19
S'/System/Library/Fonts/Apple Braille Outline 8 Dot.ttf'
p569
sg21
g22
sbag7
(g8
g9
NtRp570
(dp571
g12
g13
sg14
S'DotMatrix'
p572
sg16
I400
sg17
g13
sg18
g13
sg19
S'/Users/danieh65/Library/Fonts/Dotmatrx.ttf'
p573
sg21
g22
sbag7
(g8
g9
NtRp574
(dp575
g12
g13
sg14
S'Kozuka Mincho Pro'
p576
sg16
I400
sg17
g13
sg18
g13
sg19
S'/Library/Fonts/KozMinPro-Light.otf'
p577
sg21
g22
sbag7
(g8
g9
NtRp578
(dp579
g12
g13
sg14
S'Corbel'
p580
sg16
I400
sg17
g13
sg18
g13
sg19
S'/Users/danieh65/Library/Fonts/Corbel.ttf'
p581
sg21
g22
sbag7
(g8
g9
NtRp582
(dp583
g12
g74
sg14
S'Chaparral Pro'
p584
sg16
I700
sg17
g13
sg18
g13
sg19
S'/Library/Fonts/ChaparralPro-BoldIt.otf'
p585
sg21
g22
sbag7
(g8
g9
NtRp586
(dp587
g12
g13
sg14
S'Plantagenet Cherokee'
p588
sg16
I400
sg17
g13
sg18
g13
sg19
S'/Library/Fonts/PlantagenetCherokee.ttf'
p589
sg21
g22
sbag7
(g8
g9
NtRp590
(dp591
g12
g74
sg14
S'Corbel'
p592
sg16
I700
sg17
g13
sg18
g13
sg19
S'/Users/danieh65/Library/Fonts/Corbel Bold Italic.ttf'
p593
sg21
g22
sbag7
(g8
g9
NtRp594
(dp595
g12
g13
sg14
S'Times New Roman'
p596
sg16
I700
sg17
g13
sg18
g13
sg19
S'/Library/Fonts/Times New Roman Bold.ttf'
p597
sg21
g22
sbag7
(g8
g9
NtRp598
(dp599
g12
g13
sg14
S'Kozuka Gothic Pr6N'
p600
sg16
I400
sg17
g13
sg18
g13
sg19
S'/Library/Fonts/KozGoPr6N-Regular.otf'
p601
sg21
g22
sbag7
(g8
g9
NtRp602
(dp603
g12
g13
sg14
S'.SF Compact Display'
p604
sg16
I400
sg17
g13
sg18
g13
sg19
S'/System/Library/Fonts/SFCompactDisplay-Semibold.otf'
p605
sg21
g22
sbag7
(g8
g9
NtRp606
(dp607
g12
g13
sg14
S'Adobe Heiti Std'
p608
sg16
I400
sg17
g13
sg18
g13
sg19
S'/Library/Fonts/AdobeHeitiStd-Regular.otf'
p609
sg21
g22
sbag7
(g8
g9
NtRp610
(dp611
g12
g74
sg14
S'Arial'
p612
sg16
I700
sg17
g13
sg18
g13
sg19
S'/Library/Fonts/Arial Bold Italic.ttf'
p613
sg21
g22
sbag7
(g8
g9
NtRp614
(dp615
g12
g13
sg14
S'.SF NS Text Condensed'
p616
sg16
I400
sg17
g13
sg18
g13
sg19
S'/System/Library/Fonts/SFNSTextCondensed-Regular.otf'
p617
sg21
g22
sbag7
(g8
g9
NtRp618
(dp619
g12
g13
sg14
S'Tekton Pro'
p620
sg16
I700
sg17
g13
sg18
g13
sg19
S'/Library/Fonts/TektonPro-Bold.otf'
p621
sg21
g22
sbag7
(g8
g9
NtRp622
(dp623
g12
g74
sg14
S'Adobe Garamond Pro'
p624
sg16
I400
sg17
g13
sg18
g13
sg19
S'/Library/Fonts/AGaramondPro-Italic.otf'
p625
sg21
g22
sbag7
(g8
g9
NtRp626
(dp627
g12
g13
sg14
S'STIXVariants'
p628
sg16
I400
sg17
g13
sg18
g13
sg19
S'/Library/Fonts/STIXVar.otf'
p629
sg21
g22
sbag7
(g8
g9
NtRp630
(dp631
g12
g13
sg14
S'Mishafi'
p632
sg16
I400
sg17
g13
sg18
g13
sg19
S'/Library/Fonts/Mishafi.ttf'
p633
sg21
g22
sbag7
(g8
g9
NtRp634
(dp635
g12
g13
sg14
S'STIXVariants'
p636
sg16
I700
sg17
g13
sg18
g13
sg19
S'/Library/Fonts/STIXVarBol.otf'
p637
sg21
g22
sbag7
(g8
g9
NtRp638
(dp639
g12
g13
sg14
S'Adobe Song Std'
p640
sg16
I400
sg17
g13
sg18
g13
sg19
S'/Library/Fonts/AdobeSongStd-Light.otf'
p641
sg21
g22
sbag7
(g8
g9
NtRp642
(dp643
g12
g13
sg14
S'Chaparral Pro'
p644
sg16
I700
sg17
g13
sg18
g13
sg19
S'/Library/Fonts/ChaparralPro-Bold.otf'
p645
sg21
g22
sbag7
(g8
g9
NtRp646
(dp647
g12
g13
sg14
S'.SF Compact Text'
p648
sg16
I400
sg17
g13
sg18
g13
sg19
S'/System/Library/Fonts/SFCompactText-Regular.otf'
p649
sg21
g22
sbag7
(g8
g9
NtRp650
(dp651
g12
g13
sg14
S'.SF Compact Text'
p652
sg16
I400
sg17
g13
sg18
g13
sg19
S'/System/Library/Fonts/SFCompactText-Semibold.otf'
p653
sg21
g22
sbag7
(g8
g9
NtRp654
(dp655
g12
g13
sg14
S'.SF Compact Display'
p656
sg16
I400
sg17
g13
sg18
g13
sg19
S'/System/Library/Fonts/SFCompactDisplay-Medium.otf'
p657
sg21
g22
sbag7
(g8
g9
NtRp658
(dp659
g12
g13
sg14
S'Birch Std'
p660
sg16
I400
sg17
g13
sg18
g13
sg19
S'/Library/Fonts/BirchStd.otf'
p661
sg21
g22
sbag7
(g8
g9
NtRp662
(dp663
g12
g74
sg14
S'Nueva Std'
p664
sg16
I400
sg17
g13
sg18
g13
sg19
S'/Library/Fonts/NuevaStd-Italic.otf'
p665
sg21
g22
sbag7
(g8
g9
NtRp666
(dp667
g12
g74
sg14
S'Cambria'
p668
sg16
I400
sg17
g13
sg18
g13
sg19
S'/Users/danieh65/Library/Fonts/Cambria Italic.ttf'
p669
sg21
g22
sbag7
(g8
g9
NtRp670
(dp671
g12
g13
sg14
S'Candara'
p672
sg16
I700
sg17
g13
sg18
g13
sg19
S'/Users/danieh65/Library/Fonts/Candara Bold.ttf'
p673
sg21
g22
sbag7
(g8
g9
NtRp674
(dp675
g12
g13
sg14
S'.LastResort'
p676
sg16
I400
sg17
g13
sg18
g13
sg19
S'/System/Library/Fonts/LastResort.otf'
p677
sg21
g22
sbag7
(g8
g9
NtRp678
(dp679
g12
g13
sg14
S'STIXIntegralsUp'
p680
sg16
I700
sg17
g13
sg18
g13
sg19
S'/Library/Fonts/STIXIntUpBol.otf'
p681
sg21
g22
sbag7
(g8
g9
NtRp682
(dp683
g12
g13
sg14
S'STIXGeneral'
p684
sg16
I700
sg17
g13
sg18
g13
sg19
S'/Library/Fonts/STIXGeneralBol.otf'
p685
sg21
g22
sbag7
(g8
g9
NtRp686
(dp687
g12
g74
sg14
S'Adobe Hebrew'
p688
sg16
I700
sg17
g13
sg18
g13
sg19
S'/Library/Fonts/AdobeHebrew-BoldItalic.otf'
p689
sg21
g22
sbag7
(g8
g9
NtRp690
(dp691
g12
g13
sg14
S'Skia'
p692
sg16
I400
sg17
g13
sg18
g13
sg19
S'/Library/Fonts/Skia.ttf'
p693
sg21
g22
sbag7
(g8
g9
NtRp694
(dp695
g12
g13
sg14
S'Letter Gothic Std'
p696
sg16
I500
sg17
g13
sg18
g13
sg19
S'/Library/Fonts/LetterGothicStd.otf'
p697
sg21
g22
sbag7
(g8
g9
NtRp698
(dp699
g12
g13
sg14
S'Kozuka Gothic Pr6N'
p700
sg16
I700
sg17
g13
sg18
g13
sg19
S'/Library/Fonts/KozGoPr6N-Bold.otf'
p701
sg21
g22
sbag7
(g8
g9
NtRp702
(dp703
g12
g13
sg14
S'Adobe Arabic'
p704
sg16
I400
sg17
g13
sg18
g13
sg19
S'/Library/Fonts/AdobeArabic-Regular.otf'
p705
sg21
g22
sbag7
(g8
g9
NtRp706
(dp707
g12
g13
sg14
S'Farisi'
p708
sg16
I400
sg17
g13
sg18
g13
sg19
S'/Library/Fonts/Farisi.ttf'
p709
sg21
g22
sbag7
(g8
g9
NtRp710
(dp711
g12
g13
sg14
S'System Font'
p712
sg16
I400
sg17
g13
sg18
g13
sg19
S'/System/Library/Fonts/SFNSText.ttf'
p713
sg21
g22
sbag7
(g8
g9
NtRp714
(dp715
g12
g13
sg14
S'Adobe Caslon Pro'
p716
sg16
I700
sg17
g13
sg18
g13
sg19
S'/Library/Fonts/ACaslonPro-Semibold.otf'
p717
sg21
g22
sbag7
(g8
g9
NtRp718
(dp719
g12
g13
sg14
S'.SF Compact Display'
p720
sg16
I400
sg17
g13
sg18
g13
sg19
S'/System/Library/Fonts/SFCompactDisplay-Light.otf'
p721
sg21
g22
sbag7
(g8
g9
NtRp722
(dp723
g12
g13
sg14
S'Kokonor'
p724
sg16
I400
sg17
g13
sg18
g13
sg19
S'/Library/Fonts/Kokonor.ttf'
p725
sg21
g22
sbag7
(g8
g9
NtRp726
(dp727
g12
g13
sg14
S'Bodoni 72 Smallcaps'
p728
sg16
I400
sg17
g13
sg18
g13
sg19
S'/Library/Fonts/Bodoni 72 Smallcaps Book.ttf'
p729
sg21
g22
sbag7
(g8
g9
NtRp730
(dp731
g12
g13
sg14
S'.SF Compact Text'
p732
sg16
I400
sg17
g13
sg18
g13
sg19
S'/System/Library/Fonts/SFCompactText-Bold.otf'
p733
sg21
g22
sbag7
(g8
g9
NtRp734
(dp735
g12
g13
sg14
S'Diwan Thuluth'
p736
sg16
I400
sg17
g13
sg18
g13
sg19
S'/Library/Fonts/Diwan Thuluth.ttf'
p737
sg21
g22
sbag7
(g8
g9
NtRp738
(dp739
g12
g13
sg14
S'Kozuka Mincho Pro'
p740
sg16
I700
sg17
g13
sg18
g13
sg19
S'/Library/Fonts/KozMinPro-Heavy.otf'
p741
sg21
g22
sbag7
(g8
g9
NtRp742
(dp743
g12
g13
sg14
S'Symbol Tiger Expert'
p744
sg16
I400
sg17
g13
sg18
g13
sg19
S'/Library/Fonts/Symbol Tiger Expert.ttf'
p745
sg21
g22
sbag7
(g8
g9
NtRp746
(dp747
g12
g25
sg14
S'Tekton Pro'
p748
sg16
I700
sg17
g13
sg18
g13
sg19
S'/Library/Fonts/TektonPro-BoldObl.otf'
p749
sg21
g22
sbag7
(g8
g9
NtRp750
(dp751
g12
g13
sg14
S'Lithos Pro'
p752
sg16
I400
sg17
g13
sg18
g13
sg19
S'/Library/Fonts/LithosPro-Regular.otf'
p753
sg21
g22
sbag7
(g8
g9
NtRp754
(dp755
g12
g13
sg14
S'Trebuchet MS'
p756
sg16
I700
sg17
g13
sg18
g13
sg19
S'/Library/Fonts/Trebuchet MS Bold.ttf'
p757
sg21
g22
sbag7
(g8
g9
NtRp758
(dp759
g12
g13
sg14
S'Trajan Pro'
p760
sg16
I400
sg17
g13
sg18
g13
sg19
S'/Library/Fonts/TrajanPro-Regular.otf'
p761
sg21
g22
sbag7
(g8
g9
NtRp762
(dp763
g12
g13
sg14
S'Kozuka Mincho Pro'
p764
sg16
I700
sg17
g13
sg18
g13
sg19
S'/Library/Fonts/KozMinPro-Bold.otf'
p765
sg21
g22
sbag7
(g8
g9
NtRp766
(dp767
g12
g13
sg14
S'Adobe Myungjo Std'
p768
sg16
I400
sg17
g13
sg18
g13
sg19
S'/Library/Fonts/AdobeMyungjoStd-Medium.otf'
p769
sg21
g22
sbag7
(g8
g9
NtRp770
(dp771
g12
g74
sg14
S'Letter Gothic Std'
p772
sg16
I700
sg17
g13
sg18
g13
sg19
S'/Library/Fonts/LetterGothicStd-BoldSlanted.otf'
p773
sg21
g22
sbag7
(g8
g9
NtRp774
(dp775
g12
g13
sg14
S'Nueva Std'
p776
sg16
I700
sg17
g192
sg18
g13
sg19
S'/Library/Fonts/NuevaStd-BoldCond.otf'
p777
sg21
g22
sbag7
(g8
g9
NtRp778
(dp779
g12
g74
sg14
S'STIXNonUnicode'
p780
sg16
I700
sg17
g13
sg18
g13
sg19
S'/Library/Fonts/STIXNonUniBolIta.otf'
p781
sg21
g22
sbag7
(g8
g9
NtRp782
(dp783
g12
g13
sg14
S'STIXSizeFiveSym'
p784
sg16
I400
sg17
g13
sg18
g13
sg19
S'/Library/Fonts/STIXSizFiveSymReg.otf'
p785
sg21
g22
sbag7
(g8
g9
NtRp786
(dp787
g12
g13
sg14
S'Symbol'
p788
sg16
I400
sg17
g13
sg18
g13
sg19
S'/System/Library/Fonts/Symbol.ttf'
p789
sg21
g22
sbag7
(g8
g9
NtRp790
(dp791
g12
g74
sg14
S'Georgia'
p792
sg16
I400
sg17
g13
sg18
g13
sg19
S'/Library/Fonts/Georgia Italic.ttf'
p793
sg21
g22
sbag7
(g8
g9
NtRp794
(dp795
g12
g13
sg14
S'Brush Script Std'
p796
sg16
I500
sg17
g13
sg18
g13
sg19
S'/Library/Fonts/BrushScriptStd.otf'
p797
sg21
g22
sbag7
(g8
g9
NtRp798
(dp799
g12
g13
sg14
S'Adobe Gothic Std'
p800
sg16
I700
sg17
g13
sg18
g13
sg19
S'/Library/Fonts/AdobeGothicStd-Bold.otf'
p801
sg21
g22
sbag7
(g8
g9
NtRp802
(dp803
g12
g13
sg14
S'Adobe Hebrew'
p804
sg16
I700
sg17
g13
sg18
g13
sg19
S'/Library/Fonts/AdobeHebrew-Bold.otf'
p805
sg21
g22
sbag7
(g8
g9
NtRp806
(dp807
g12
g13
sg14
S'Verdana'
p808
sg16
I400
sg17
g13
sg18
g13
sg19
S'/Library/Fonts/Verdana.ttf'
p809
sg21
g22
sbag7
(g8
g9
NtRp810
(dp811
g12
g74
sg14
S'Courier New'
p812
sg16
I700
sg17
g13
sg18
g13
sg19
S'/Library/Fonts/Courier New Bold Italic.ttf'
p813
sg21
g22
sbag7
(g8
g9
NtRp814
(dp815
g12
g74
sg14
S'Arial'
p816
sg16
I400
sg17
g13
sg18
g13
sg19
S'/Library/Fonts/Arial Italic.ttf'
p817
sg21
g22
sbag7
(g8
g9
NtRp818
(dp819
g12
g13
sg14
S'System Font'
p820
sg16
I400
sg17
g13
sg18
g13
sg19
S'/System/Library/Fonts/SFNSDisplay-LightItalic.otf'
p821
sg21
g22
sbag7
(g8
g9
NtRp822
(dp823
g12
g13
sg14
S'Myriad Pro'
p824
sg16
I700
sg17
g13
sg18
g13
sg19
S'/Library/Fonts/MyriadPro-Semibold.otf'
p825
sg21
g22
sbag7
(g8
g9
NtRp826
(dp827
g12
g13
sg14
S'Adobe Garamond Pro'
p828
sg16
I400
sg17
g13
sg18
g13
sg19
S'/Library/Fonts/AGaramondPro-Regular.otf'
p829
sg21
g22
sbag7
(g8
g9
NtRp830
(dp831
g12
g13
sg14
S'Myriad Arabic'
p832
sg16
I700
sg17
g13
sg18
g13
sg19
S'/Library/Fonts/MyriadArabic-Bold.otf'
p833
sg21
g22
sbag7
(g8
g9
NtRp834
(dp835
g12
g13
sg14
S'Dot Matrix'
p836
sg16
I400
sg17
g13
sg18
g13
sg19
S'/Users/danieh65/Library/Fonts/DOTMATRI.TTF'
p837
sg21
g22
sbag7
(g8
g9
NtRp838
(dp839
g12
g13
sg14
S'Trajan Pro'
p840
sg16
I700
sg17
g13
sg18
g13
sg19
S'/Library/Fonts/TrajanPro-Bold.otf'
p841
sg21
g22
sbag7
(g8
g9
NtRp842
(dp843
g12
g74
sg14
S'Adobe Arabic'
p844
sg16
I700
sg17
g13
sg18
g13
sg19
S'/Library/Fonts/AdobeArabic-BoldItalic.otf'
p845
sg21
g22
sbag7
(g8
g9
NtRp846
(dp847
g12
g74
sg14
S'Constantia'
p848
sg16
I400
sg17
g13
sg18
g13
sg19
S'/Users/danieh65/Library/Fonts/Constantia Italic.ttf'
p849
sg21
g22
sbag7
(g8
g9
NtRp850
(dp851
g12
g13
sg14
S'.SF Compact Text'
p852
sg16
I400
sg17
g13
sg18
g13
sg19
S'/System/Library/Fonts/SFCompactText-Light.otf'
p853
sg21
g22
sbag7
(g8
g9
NtRp854
(dp855
g12
g13
sg14
S'.SF NS Display Condensed'
p856
sg16
I400
sg17
g13
sg18
g13
sg19
S'/System/Library/Fonts/SFNSDisplayCondensed-Thin.otf'
p857
sg21
g22
sbag7
(g8
g9
NtRp858
(dp859
g12
g13
sg14
S'Chaparral Pro'
p860
sg16
I400
sg17
g13
sg18
g13
sg19
S'/Library/Fonts/ChaparralPro-Regular.otf'
p861
sg21
g22
sbag7
(g8
g9
NtRp862
(dp863
g12
g74
sg14
S'Constantia'
p864
sg16
I700
sg17
g13
sg18
g13
sg19
S'/Users/danieh65/Library/Fonts/Constantia Bold Italic.ttf'
p865
sg21
g22
sbag7
(g8
g9
NtRp866
(dp867
g12
g13
sg14
S'Myriad Pro'
p868
sg16
I700
sg17
g192
sg18
g13
sg19
S'/Library/Fonts/MyriadPro-BoldCond.otf'
p869
sg21
g22
sbag7
(g8
g9
NtRp870
(dp871
g12
g13
sg14
S'Kozuka Mincho Pr6N'
p872
sg16
I700
sg17
g13
sg18
g13
sg19
S'/Library/Fonts/KozMinPr6N-Bold.otf'
p873
sg21
g22
sbag7
(g8
g9
NtRp874
(dp875
g12
g74
sg14
S'Verdana'
p876
sg16
I700
sg17
g13
sg18
g13
sg19
S'/Library/Fonts/Verdana Bold Italic.ttf'
p877
sg21
g22
sbag7
(g8
g9
NtRp878
(dp879
g12
g13
sg14
S'Arial'
p880
sg16
I400
sg17
g13
sg18
g13
sg19
S'/Library/Fonts/Arial.ttf'
p881
sg21
g22
sbag7
(g8
g9
NtRp882
(dp883
g12
g13
sg14
S'.SF NS Display Condensed'
p884
sg16
I400
sg17
g13
sg18
g13
sg19
S'/System/Library/Fonts/SFNSDisplayCondensed-Black.otf'
p885
sg21
g22
sbag7
(g8
g9
NtRp886
(dp887
g12
g13
sg14
S'STIXIntegralsSm'
p888
sg16
I400
sg17
g13
sg18
g13
sg19
S'/Library/Fonts/STIXIntSmReg.otf'
p889
sg21
g22
sbag7
(g8
g9
NtRp890
(dp891
g12
g13
sg14
S'Kozuka Mincho Pro'
p892
sg16
I400
sg17
g13
sg18
g13
sg19
S'/Library/Fonts/KozMinPro-Medium.otf'
p893
sg21
g22
sbag7
(g8
g9
NtRp894
(dp895
g12
g74
sg14
S'Verdana'
p896
sg16
I400
sg17
g13
sg18
g13
sg19
S'/Library/Fonts/Verdana Italic.ttf'
p897
sg21
g22
sbag7
(g8
g9
NtRp898
(dp899
g12
g74
sg14
S'Adobe Devanagari'
p900
sg16
I700
sg17
g13
sg18
g13
sg19
S'/Library/Fonts/AdobeDevanagari-BoldItalic.otf'
p901
sg21
g22
sbag7
(g8
g9
NtRp902
(dp903
g12
g13
sg14
S'Apple Braille'
p904
sg16
I400
sg17
g13
sg18
g13
sg19
S'/System/Library/Fonts/Apple Braille.ttf'
p905
sg21
g22
sbag7
(g8
g9
NtRp906
(dp907
g12
g13
sg14
S'Khmer Sangam MN'
p908
sg16
I400
sg17
g13
sg18
g13
sg19
S'/Library/Fonts/Khmer Sangam MN.ttf'
p909
sg21
g22
sbag7
(g8
g9
NtRp910
(dp911
g12
g13
sg14
S'5x5 Dots'
p912
sg16
I400
sg17
g13
sg18
g13
sg19
S'/Users/danieh65/Library/Fonts/5x5dots.ttf'
p913
sg21
g22
sbag7
(g8
g9
NtRp914
(dp915
g12
g13
sg14
S'.SF Compact Text'
p916
sg16
I400
sg17
g13
sg18
g13
sg19
S'/System/Library/Fonts/SFCompactText-Heavy.otf'
p917
sg21
g22
sbag7
(g8
g9
NtRp918
(dp919
g12
g13
sg14
S'System Font'
p920
sg16
I400
sg17
g13
sg18
g13
sg19
S'/System/Library/Fonts/SFNSDisplay-HeavyItalic.otf'
p921
sg21
g22
sbag7
(g8
g9
NtRp922
(dp923
g12
g13
sg14
S'Adobe Caslon Pro'
p924
sg16
I700
sg17
g13
sg18
g13
sg19
S'/Library/Fonts/ACaslonPro-Bold.otf'
p925
sg21
g22
sbag7
(g8
g9
NtRp926
(dp927
g12
g13
sg14
S'Chalkduster'
p928
sg16
I400
sg17
g13
sg18
g13
sg19
S'/Library/Fonts/Chalkduster.ttf'
p929
sg21
g22
sbag7
(g8
g9
NtRp930
(dp931
g12
g74
sg14
S'Consolas'
p932
sg16
I400
sg17
g13
sg18
g13
sg19
S'/Users/danieh65/Library/Fonts/Consolas Italic.ttf'
p933
sg21
g22
sbag7
(g8
g9
NtRp934
(dp935
g12
g13
sg14
S'Minion Pro'
p936
sg16
I400
sg17
g13
sg18
g13
sg19
S'/Library/Fonts/MinionPro-Regular.otf'
p937
sg21
g22
sbag7
(g8
g9
NtRp938
(dp939
g12
g13
sg14
S'.SF NS Display Condensed'
p940
sg16
I400
sg17
g13
sg18
g13
sg19
S'/System/Library/Fonts/SFNSDisplayCondensed-Heavy.otf'
p941
sg21
g22
sbag7
(g8
g9
NtRp942
(dp943
g12
g13
sg14
S'STIXNonUnicode'
p944
sg16
I400
sg17
g13
sg18
g13
sg19
S'/Library/Fonts/STIXNonUni.otf'
p945
sg21
g22
sbag7
(g8
g9
NtRp946
(dp947
g12
g74
sg14
S'Minion Pro'
p948
sg16
I700
sg17
g13
sg18
g13
sg19
S'/Library/Fonts/MinionPro-BoldIt.otf'
p949
sg21
g22
sbag7
(g8
g9
NtRp950
(dp951
g12
g13
sg14
S'Adobe Caslon Pro'
p952
sg16
I400
sg17
g13
sg18
g13
sg19
S'/Library/Fonts/ACaslonPro-Regular.otf'
p953
sg21
g22
sbag7
(g8
g9
NtRp954
(dp955
g12
g74
sg14
S'STIXNonUnicode'
p956
sg16
I400
sg17
g13
sg18
g13
sg19
S'/Library/Fonts/STIXNonUniIta.otf'
p957
sg21
g22
sbag7
(g8
g9
NtRp958
(dp959
g12
g13
sg14
S'STIXIntegralsUp'
p960
sg16
I400
sg17
g13
sg18
g13
sg19
S'/Library/Fonts/STIXIntUpReg.otf'
p961
sg21
g22
sbag7
(g8
g9
NtRp962
(dp963
g12
g13
sg14
S'Mesquite Std'
p964
sg16
I500
sg17
g13
sg18
g13
sg19
S'/Library/Fonts/MesquiteStd.otf'
p965
sg21
g22
sbag7
(g8
g9
NtRp966
(dp967
g12
g13
sg14
S'Tekton Pro'
p968
sg16
I700
sg17
g13
sg18
g13
sg19
S'/Library/Fonts/TektonPro-BoldExt.otf'
p969
sg21
g22
sbag7
(g8
g9
NtRp970
(dp971
g12
g74
sg14
S'Chaparral Pro'
p972
sg16
I400
sg17
g13
sg18
g13
sg19
S'/Library/Fonts/ChaparralPro-Italic.otf'
p973
sg21
g22
sbag7
(g8
g9
NtRp974
(dp975
g12
g74
sg14
S'STIXGeneral'
p976
sg16
I700
sg17
g13
sg18
g13
sg19
S'/Library/Fonts/STIXGeneralBolIta.otf'
p977
sg21
g22
sbag7
(g8
g9
NtRp978
(dp979
g12
g13
sg14
S'Trebuchet MS'
p980
sg16
I400
sg17
g13
sg18
g13
sg19
S'/Library/Fonts/Trebuchet MS.ttf'
p981
sg21
g22
sbag7
(g8
g9
NtRp982
(dp983
g12
g13
sg14
S'System Font'
p984
sg16
I400
sg17
g13
sg18
g13
sg19
S'/System/Library/Fonts/SFNSDisplay-SemiboldItalic.otf'
p985
sg21
g22
sbag7
(g8
g9
NtRp986
(dp987
g12
g74
sg14
S'Cambria'
p988
sg16
I700
sg17
g13
sg18
g13
sg19
S'/Users/danieh65/Library/Fonts/Cambria Bold Italic.ttf'
p989
sg21
g22
sbag7
(g8
g9
NtRp990
(dp991
g12
g74
sg14
S'Adobe Caslon Pro'
p992
sg16
I400
sg17
g13
sg18
g13
sg19
S'/Library/Fonts/ACaslonPro-Italic.otf'
p993
sg21
g22
sbag7
(g8
g9
NtRp994
(dp995
g12
g13
sg14
S'Courier New'
p996
sg16
I700
sg17
g13
sg18
g13
sg19
S'/Library/Fonts/Courier New Bold.ttf'
p997
sg21
g22
sbag7
(g8
g9
NtRp998
(dp999
g12
g13
sg14
S'Big Caslon'
p1000
sg16
I500
sg17
g13
sg18
g13
sg19
S'/Library/Fonts/BigCaslon.ttf'
p1001
sg21
g22
sbag7
(g8
g9
NtRp1002
(dp1003
g12
g13
sg14
S'Minion Pro'
p1004
sg16
I700
sg17
g13
sg18
g13
sg19
S'/Library/Fonts/MinionPro-Semibold.otf'
p1005
sg21
g22
sbag7
(g8
g9
NtRp1006
(dp1007
g12
g13
sg14
S'.SF NS Text Condensed'
p1008
sg16
I400
sg17
g13
sg18
g13
sg19
S'/System/Library/Fonts/SFNSTextCondensed-Semibold.otf'
p1009
sg21
g22
sbag7
(g8
g9
NtRp1010
(dp1011
g12
g74
sg14
S'Adobe Garamond Pro'
p1012
sg16
I700
sg17
g13
sg18
g13
sg19
S'/Library/Fonts/AGaramondPro-BoldItalic.otf'
p1013
sg21
g22
sbag7
(g8
g9
NtRp1014
(dp1015
g12
g74
sg14
S'Adobe Hebrew'
p1016
sg16
I400
sg17
g13
sg18
g13
sg19
S'/Library/Fonts/AdobeHebrew-Italic.otf'
p1017
sg21
g22
sbag7
(g8
g9
NtRp1018
(dp1019
g12
g13
sg14
S'Ayuthaya'
p1020
sg16
I400
sg17
g13
sg18
g13
sg19
S'/Library/Fonts/Ayuthaya.ttf'
p1021
sg21
g22
sbag7
(g8
g9
NtRp1022
(dp1023
g12
g13
sg14
S'.SF Compact Text'
p1024
sg16
I400
sg17
g13
sg18
g13
sg19
S'/System/Library/Fonts/SFCompactText-SemiboldItalic.otf'
p1025
sg21
g22
sbag7
(g8
g9
NtRp1026
(dp1027
g12
g13
sg14
S'.SF Compact Rounded'
p1028
sg16
I400
sg17
g13
sg18
g13
sg19
S'/System/Library/Fonts/SFCompactRounded-Bold.otf'
p1029
sg21
g22
sbag7
(g8
g9
NtRp1030
(dp1031
g12
g13
sg14
S'Adobe Fangsong Std'
p1032
sg16
I400
sg17
g13
sg18
g13
sg19
S'/Library/Fonts/AdobeFangsongStd-Regular.otf'
p1033
sg21
g22
sbag7
(g8
g9
NtRp1034
(dp1035
g12
g13
sg14
S'Orator Std'
p1036
sg16
I500
sg17
g13
sg18
g13
sg19
S'/Library/Fonts/OratorStd.otf'
p1037
sg21
g22
sbag7
(g8
g9
NtRp1038
(dp1039
g12
g13
sg14
S'Webdings'
p1040
sg16
I400
sg17
g13
sg18
g13
sg19
S'/Library/Fonts/Webdings.ttf'
p1041
sg21
g22
sbag7
(g8
g9
NtRp1042
(dp1043
g12
g13
sg14
S'Arial Narrow'
p1044
sg16
I400
sg17
g192
sg18
g13
sg19
S'/Library/Fonts/Arial Narrow.ttf'
p1045
sg21
g22
sbag7
(g8
g9
NtRp1046
(dp1047
g12
g13
sg14
S'Blackoak Std'
p1048
sg16
I900
sg17
g13
sg18
g13
sg19
S'/Library/Fonts/BlackoakStd.otf'
p1049
sg21
g22
sbag7
(g8
g9
NtRp1050
(dp1051
g12
g13
sg14
S'Kozuka Mincho Pr6N'
p1052
sg16
I700
sg17
g13
sg18
g13
sg19
S'/Library/Fonts/KozMinPr6N-Heavy.otf'
p1053
sg21
g22
sbag7
(g8
g9
NtRp1054
(dp1055
g12
g13
sg14
S'System Font'
p1056
sg16
I400
sg17
g13
sg18
g13
sg19
S'/System/Library/Fonts/SFNSDisplay-RegularItalic.otf'
p1057
sg21
g22
sbag7
(g8
g9
NtRp1058
(dp1059
g12
g74
sg14
S'Trebuchet MS'
p1060
sg16
I700
sg17
g13
sg18
g13
sg19
S'/Library/Fonts/Trebuchet MS Bold Italic.ttf'
p1061
sg21
g22
sbag7
(g8
g9
NtRp1062
(dp1063
g12
g74
sg14
S'Adobe Caslon Pro'
p1064
sg16
I700
sg17
g13
sg18
g13
sg19
S'/Library/Fonts/ACaslonPro-SemiboldItalic.otf'
p1065
sg21
g22
sbag7
(g8
g9
NtRp1066
(dp1067
g12
g13
sg14
S'System Font'
p1068
sg16
I400
sg17
g13
sg18
g13
sg19
S'/System/Library/Fonts/SFNSDisplay-UltralightItalic.otf'
p1069
sg21
g22
sbag7
(g8
g9
NtRp1070
(dp1071
g12
g74
sg14
S'Calibri'
p1072
sg16
I400
sg17
g13
sg18
g13
sg19
S'/Users/danieh65/Library/Fonts/Calibri Italic.ttf'
p1073
sg21
g22
sbag7
(g8
g9
NtRp1074
(dp1075
g12
g74
sg14
S'Minion Pro'
p1076
sg16
I700
sg17
g13
sg18
g13
sg19
S'/Library/Fonts/MinionPro-SemiboldIt.otf'
p1077
sg21
g22
sbag7
(g8
g9
NtRp1078
(dp1079
g12
g13
sg14
S'Tiger'
p1080
sg16
I400
sg17
g13
sg18
g13
sg19
S'/Library/Fonts/Tiger.ttf'
p1081
sg21
g22
sbag7
(g8
g9
NtRp1082
(dp1083
g12
g74
sg14
S'Myriad Pro'
p1084
sg16
I700
sg17
g13
sg18
g13
sg19
S'/Library/Fonts/MyriadPro-BoldIt.otf'
p1085
sg21
g22
sbag7
(g8
g9
NtRp1086
(dp1087
g12
g13
sg14
S'Kozuka Gothic Pro'
p1088
sg16
I700
sg17
g13
sg18
g13
sg19
S'/Library/Fonts/KozGoPro-Heavy.otf'
p1089
sg21
g22
sbag7
(g8
g9
NtRp1090
(dp1091
g12
g13
sg14
S'Wingdings 2'
p1092
sg16
I400
sg17
g13
sg18
g13
sg19
S'/Library/Fonts/Wingdings 2.ttf'
p1093
sg21
g22
sbag7
(g8
g9
NtRp1094
(dp1095
g12
g13
sg14
S'Lithos Pro'
p1096
sg16
I900
sg17
g13
sg18
g13
sg19
S'/Library/Fonts/LithosPro-Black.otf'
p1097
sg21
g22
sbag7
(g8
g9
NtRp1098
(dp1099
g12
g13
sg14
S'Tahoma'
p1100
sg16
I400
sg17
g13
sg18
g13
sg19
S'/Library/Fonts/Tahoma.ttf'
p1101
sg21
g22
sbag7
(g8
g9
NtRp1102
(dp1103
g12
g74
sg14
S'Brush Script MT'
p1104
sg16
I400
sg17
g13
sg18
g13
sg19
S'/Library/Fonts/Brush Script.ttf'
p1105
sg21
g22
sbag7
(g8
g9
NtRp1106
(dp1107
g12
g74
sg14
S'Consolas'
p1108
sg16
I700
sg17
g13
sg18
g13
sg19
S'/Users/danieh65/Library/Fonts/Consolas Bold Italic.ttf'
p1109
sg21
g22
sbag7
(g8
g9
NtRp1110
(dp1111
g12
g13
sg14
S'.Keyboard'
p1112
sg16
I400
sg17
g13
sg18
g13
sg19
S'/System/Library/Fonts/Keyboard.ttf'
p1113
sg21
g22
sbag7
(g8
g9
NtRp1114
(dp1115
g12
g13
sg14
S'.SF Compact Text'
p1116
sg16
I400
sg17
g13
sg18
g13
sg19
S'/System/Library/Fonts/SFCompactText-Medium.otf'
p1117
sg21
g22
sbag7
(g8
g9
NtRp1118
(dp1119
g12
g74
sg14
S'Candara'
p1120
sg16
I700
sg17
g13
sg18
g13
sg19
S'/Users/danieh65/Library/Fonts/Candara Bold Italic.ttf'
p1121
sg21
g22
sbag7
(g8
g9
NtRp1122
(dp1123
g12
g13
sg14
S'STIXGeneral'
p1124
sg16
I400
sg17
g13
sg18
g13
sg19
S'/Library/Fonts/STIXGeneral.otf'
p1125
sg21
g22
sbag7
(g8
g9
NtRp1126
(dp1127
g12
g13
sg14
S'STIXSizeOneSym'
p1128
sg16
I400
sg17
g13
sg18
g13
sg19
S'/Library/Fonts/STIXSizOneSymReg.otf'
p1129
sg21
g22
sbag7
(g8
g9
NtRp1130
(dp1131
g12
g13
sg14
S'STIXIntegralsUpSm'
p1132
sg16
I400
sg17
g13
sg18
g13
sg19
S'/Library/Fonts/STIXIntUpSmReg.otf'
p1133
sg21
g22
sbag7
(g8
g9
NtRp1134
(dp1135
g12
g13
sg14
S'Minion Pro'
p1136
sg16
I700
sg17
g13
sg18
g13
sg19
S'/Library/Fonts/MinionPro-Bold.otf'
p1137
sg21
g22
sbag7
(g8
g9
NtRp1138
(dp1139
g12
g74
sg14
S'Myriad Arabic'
p1140
sg16
I400
sg17
g13
sg18
g13
sg19
S'/Library/Fonts/MyriadArabic-It.otf'
p1141
sg21
g22
sbag7
(g8
g9
NtRp1142
(dp1143
g12
g74
sg14
S'Orator Std'
p1144
sg16
I400
sg17
g13
sg18
g13
sg19
S'/Library/Fonts/OratorStd-Slanted.otf'
p1145
sg21
g22
sbag7
(g8
g9
NtRp1146
(dp1147
g12
g74
sg14
S'Myriad Hebrew'
p1148
sg16
I400
sg17
g13
sg18
g13
sg19
S'/Library/Fonts/MyriadHebrew-It.otf'
p1149
sg21
g22
sbag7
(g8
g9
NtRp1150
(dp1151
g12
g13
sg14
S'Cambria'
p1152
sg16
I400
sg17
g13
sg18
g13
sg19
S'/Users/danieh65/Library/Fonts/Cambria.ttf'
p1153
sg21
g22
sbag7
(g8
g9
NtRp1154
(dp1155
g12
g13
sg14
S'Microsoft Sans Serif'
p1156
sg16
I400
sg17
g13
sg18
g13
sg19
S'/Library/Fonts/Microsoft Sans Serif.ttf'
p1157
sg21
g22
sbag7
(g8
g9
NtRp1158
(dp1159
g12
g74
sg14
S'Minion Pro'
p1160
sg16
I500
sg17
g13
sg18
g13
sg19
S'/Library/Fonts/MinionPro-MediumIt.otf'
p1161
sg21
g22
sbag7
(g8
g9
NtRp1162
(dp1163
g12
g13
sg14
S'Kozuka Mincho Pro'
p1164
sg16
I400
sg17
g13
sg18
g13
sg19
S'/Library/Fonts/KozMinPro-Regular.otf'
p1165
sg21
g22
sbag7
(g8
g9
NtRp1166
(dp1167
g12
g13
sg14
S'STIXIntegralsUpD'
p1168
sg16
I700
sg17
g13
sg18
g13
sg19
S'/Library/Fonts/STIXIntUpDBol.otf'
p1169
sg21
g22
sbag7
(g8
g9
NtRp1170
(dp1171
g12
g13
sg14
S'Myriad Pro'
p1172
sg16
I700
sg17
g13
sg18
g13
sg19
S'/Library/Fonts/MyriadPro-Bold.otf'
p1173
sg21
g22
sbag7
(g8
g9
NtRp1174
(dp1175
g12
g74
sg14
S'Minion Pro'
p1176
sg16
I700
sg17
g192
sg18
g13
sg19
S'/Library/Fonts/MinionPro-BoldCnIt.otf'
p1177
sg21
g22
sbag7
(g8
g9
NtRp1178
(dp1179
g12
g74
sg14
S'Courier New'
p1180
sg16
I400
sg17
g13
sg18
g13
sg19
S'/Library/Fonts/Courier New Italic.ttf'
p1181
sg21
g22
sbag7
(g8
g9
NtRp1182
(dp1183
g12
g13
sg14
S'Arial Black'
p1184
sg16
I900
sg17
g13
sg18
g13
sg19
S'/Library/Fonts/Arial Black.ttf'
p1185
sg21
g22
sbag7
(g8
g9
NtRp1186
(dp1187
g12
g13
sg14
S'Kozuka Gothic Pro'
p1188
sg16
I400
sg17
g13
sg18
g13
sg19
S'/Library/Fonts/KozGoPro-Light.otf'
p1189
sg21
g22
sbag7
(g8
g9
NtRp1190
(dp1191
g12
g74
sg14
S'Myriad Pro'
p1192
sg16
I700
sg17
g13
sg18
g13
sg19
S'/Library/Fonts/MyriadPro-SemiboldIt.otf'
p1193
sg21
g22
sbag7
(g8
g9
NtRp1194
(dp1195
g12
g13
sg14
S'.SF Compact Display'
p1196
sg16
I400
sg17
g13
sg18
g13
sg19
S'/System/Library/Fonts/SFCompactDisplay-Ultralight.otf'
p1197
sg21
g22
sbag7
(g8
g9
NtRp1198
(dp1199
g12
g13
sg14
S'Apple Braille'
p1200
sg16
I400
sg17
g13
sg18
g13
sg19
S'/System/Library/Fonts/Apple Braille Pinpoint 6 Dot.ttf'
p1201
sg21
g22
sbag7
(g8
g9
NtRp1202
(dp1203
g12
g13
sg14
S'.SF Compact Display'
p1204
sg16
I400
sg17
g13
sg18
g13
sg19
S'/System/Library/Fonts/SFCompactDisplay-Thin.otf'
p1205
sg21
g22
sbag7
(g8
g9
NtRp1206
(dp1207
g12
g74
sg14
S'STIXGeneral'
p1208
sg16
I400
sg17
g13
sg18
g13
sg19
S'/Library/Fonts/STIXGeneralItalic.otf'
p1209
sg21
g22
sbag7
(g8
g9
NtRp1210
(dp1211
g12
g13
sg14
S'Letter Gothic Std'
p1212
sg16
I700
sg17
g13
sg18
g13
sg19
S'/Library/Fonts/LetterGothicStd-Bold.otf'
p1213
sg21
g22
sbag7
(g8
g9
NtRp1214
(dp1215
g12
g13
sg14
S'Silom'
p1216
sg16
I400
sg17
g13
sg18
g13
sg19
S'/Library/Fonts/Silom.ttf'
p1217
sg21
g22
sbag7
(g8
g9
NtRp1218
(dp1219
g12
g74
sg14
S'Myriad Pro'
p1220
sg16
I700
sg17
g192
sg18
g13
sg19
S'/Library/Fonts/MyriadPro-BoldCondIt.otf'
p1221
sg21
g22
sbag7
(g8
g9
NtRp1222
(dp1223
g12
g13
sg14
S'.SF NS Display Condensed'
p1224
sg16
I400
sg17
g13
sg18
g13
sg19
S'/System/Library/Fonts/SFNSDisplayCondensed-Medium.otf'
p1225
sg21
g22
sbag7
(g8
g9
NtRp1226
(dp1227
g12
g13
sg14
S'Giddyup Std'
p1228
sg16
I400
sg17
g13
sg18
g13
sg19
S'/Library/Fonts/GiddyupStd.otf'
p1229
sg21
g22
sbag7
(g8
g9
NtRp1230
(dp1231
g12
g13
sg14
S'.SF Compact Text'
p1232
sg16
I400
sg17
g13
sg18
g13
sg19
S'/System/Library/Fonts/SFCompactText-RegularItalic.otf'
p1233
sg21
g22
sbag7
(g8
g9
NtRp1234
(dp1235
g12
g13
sg14
S'STIXSizeFourSym'
p1236
sg16
I400
sg17
g13
sg18
g13
sg19
S'/Library/Fonts/STIXSizFourSymReg.otf'
p1237
sg21
g22
sbag7
(g8
g9
NtRp1238
(dp1239
g12
g13
sg14
S'Apple Chancery'
p1240
sg16
I400
sg17
g13
sg18
g13
sg19
S'/Library/Fonts/Apple Chancery.ttf'
p1241
sg21
g22
sbag7
(g8
g9
NtRp1242
(dp1243
g12
g13
sg14
S'Kozuka Mincho Pr6N'
p1244
sg16
I400
sg17
g13
sg18
g13
sg19
S'/Library/Fonts/KozMinPr6N-ExtraLight.otf'
p1245
sg21
g22
sbag7
(g8
g9
NtRp1246
(dp1247
g12
g13
sg14
S'.SF Compact Text'
p1248
sg16
I400
sg17
g13
sg18
g13
sg19
S'/System/Library/Fonts/SFCompactText-LightItalic.otf'
p1249
sg21
g22
sbag7
(g8
g9
NtRp1250
(dp1251
g12
g13
sg14
S'Corbel'
p1252
sg16
I700
sg17
g13
sg18
g13
sg19
S'/Users/danieh65/Library/Fonts/Corbel Bold.ttf'
p1253
sg21
g22
sbag7
(g8
g9
NtRp1254
(dp1255
g12
g13
sg14
S'.SF NS Text Condensed'
p1256
sg16
I400
sg17
g13
sg18
g13
sg19
S'/System/Library/Fonts/SFNSTextCondensed-Light.otf'
p1257
sg21
g22
sbag7
(g8
g9
NtRp1258
(dp1259
g12
g13
sg14
S'Minion Pro'
p1260
sg16
I500
sg17
g13
sg18
g13
sg19
S'/Library/Fonts/MinionPro-Medium.otf'
p1261
sg21
g22
sbag7
(g8
g9
NtRp1262
(dp1263
g12
g13
sg14
S'Kozuka Mincho Pro'
p1264
sg16
I400
sg17
g13
sg18
g13
sg19
S'/Library/Fonts/KozMinPro-ExtraLight.otf'
p1265
sg21
g22
sbag7
(g8
g9
NtRp1266
(dp1267
g12
g13
sg14
S'Adobe Fan Heiti Std'
p1268
sg16
I700
sg17
g13
sg18
g13
sg19
S'/Library/Fonts/AdobeFanHeitiStd-Bold.otf'
p1269
sg21
g22
sbag7
(g8
g9
NtRp1270
(dp1271
g12
g13
sg14
S'Tiger Expert'
p1272
sg16
I400
sg17
g13
sg18
g13
sg19
S'/Library/Fonts/Tiger Expert.ttf'
p1273
sg21
g22
sbag7
(g8
g9
NtRp1274
(dp1275
g12
g13
sg14
S'Wingdings 3'
p1276
sg16
I400
sg17
g13
sg18
g13
sg19
S'/Library/Fonts/Wingdings 3.ttf'
p1277
sg21
g22
sbag7
(g8
g9
NtRp1278
(dp1279
g12
g13
sg14
S'Symbol Tiger'
p1280
sg16
I400
sg17
g13
sg18
g13
sg19
S'/Library/Fonts/Symbol Tiger.ttf'
p1281
sg21
g22
sbag7
(g8
g9
NtRp1282
(dp1283
g12
g13
sg14
S'Comic Sans MS'
p1284
sg16
I700
sg17
g13
sg18
g13
sg19
S'/Library/Fonts/Comic Sans MS Bold.ttf'
p1285
sg21
g22
sbag7
(g8
g9
NtRp1286
(dp1287
g12
g13
sg14
S'.SF Compact Display'
p1288
sg16
I400
sg17
g13
sg18
g13
sg19
S'/System/Library/Fonts/SFCompactDisplay-Heavy.otf'
p1289
sg21
g22
sbag7
(g8
g9
NtRp1290
(dp1291
g12
g13
sg14
S'STIXIntegralsUpSm'
p1292
sg16
I700
sg17
g13
sg18
g13
sg19
S'/Library/Fonts/STIXIntUpSmBol.otf'
p1293
sg21
g22
sbag7
(g8
g9
NtRp1294
(dp1295
g12
g13
sg14
S'Lao Sangam MN'
p1296
sg16
I400
sg17
g13
sg18
g13
sg19
S'/Library/Fonts/Lao Sangam MN.ttf'
p1297
sg21
g22
sbag7
(g8
g9
NtRp1298
(dp1299
g12
g13
sg14
S'Trattatello'
p1300
sg16
I400
sg17
g13
sg18
g13
sg19
S'/Library/Fonts/Trattatello.ttf'
p1301
sg21
g22
sbag7
(g8
g9
NtRp1302
(dp1303
g12
g74
sg14
S'Myriad Hebrew'
p1304
sg16
I700
sg17
g13
sg18
g13
sg19
S'/Library/Fonts/MyriadHebrew-BoldIt.otf'
p1305
sg21
g22
sbag7
(g8
g9
NtRp1306
(dp1307
g12
g13
sg14
S'Kozuka Gothic Pr6N'
p1308
sg16
I400
sg17
g13
sg18
g13
sg19
S'/Library/Fonts/KozGoPr6N-Light.otf'
p1309
sg21
g22
sbag7
(g8
g9
NtRp1310
(dp1311
g12
g13
sg14
S'.SF Compact Text'
p1312
sg16
I400
sg17
g13
sg18
g13
sg19
S'/System/Library/Fonts/SFCompactText-MediumItalic.otf'
p1313
sg21
g22
sbag7
(g8
g9
NtRp1314
(dp1315
g12
g13
sg14
S'STIXSizeOneSym'
p1316
sg16
I700
sg17
g13
sg18
g13
sg19
S'/Library/Fonts/STIXSizOneSymBol.otf'
p1317
sg21
g22
sbag7
(g8
g9
NtRp1318
(dp1319
g12
g13
sg14
S'Sathu'
p1320
sg16
I400
sg17
g13
sg18
g13
sg19
S'/Library/Fonts/Sathu.ttf'
p1321
sg21
g22
sbag7
(g8
g9
NtRp1322
(dp1323
g12
g13
sg14
S'Comic Sans MS'
p1324
sg16
I400
sg17
g13
sg18
g13
sg19
S'/Library/Fonts/Comic Sans MS.ttf'
p1325
sg21
g22
sbag7
(g8
g9
NtRp1326
(dp1327
g12
g13
sg14
S'Kozuka Mincho Pr6N'
p1328
sg16
I400
sg17
g13
sg18
g13
sg19
S'/Library/Fonts/KozMinPr6N-Light.otf'
p1329
sg21
g22
sbag7
(g8
g9
NtRp1330
(dp1331
g12
g13
sg14
S'Adobe Hebrew'
p1332
sg16
I400
sg17
g13
sg18
g13
sg19
S'/Library/Fonts/AdobeHebrew-Regular.otf'
p1333
sg21
g22
sbag7
(g8
g9
NtRp1334
(dp1335
g12
g13
sg14
S'STIXSizeTwoSym'
p1336
sg16
I400
sg17
g13
sg18
g13
sg19
S'/Library/Fonts/STIXSizTwoSymReg.otf'
p1337
sg21
g22
sbag7
(g8
g9
NtRp1338
(dp1339
g12
g13
sg14
S'Bodoni Ornaments'
p1340
sg16
I400
sg17
g13
sg18
g13
sg19
S'/Library/Fonts/Bodoni Ornaments.ttf'
p1341
sg21
g22
sbag7
(g8
g9
NtRp1342
(dp1343
g12
g13
sg14
S'STIXSizeFourSym'
p1344
sg16
I700
sg17
g13
sg18
g13
sg19
S'/Library/Fonts/STIXSizFourSymBol.otf'
p1345
sg21
g22
sbag7
(g8
g9
NtRp1346
(dp1347
g12
g13
sg14
S'Kozuka Gothic Pr6N'
p1348
sg16
I400
sg17
g13
sg18
g13
sg19
S'/Library/Fonts/KozGoPr6N-Medium.otf'
p1349
sg21
g22
sbag7
(g8
g9
NtRp1350
(dp1351
g12
g13
sg14
S'.SF Compact Rounded'
p1352
sg16
I400
sg17
g13
sg18
g13
sg19
S'/System/Library/Fonts/SFCompactRounded-Regular.otf'
p1353
sg21
g22
sbag7
(g8
g9
NtRp1354
(dp1355
g12
g13
sg14
S'Arial'
p1356
sg16
I700
sg17
g13
sg18
g13
sg19
S'/Library/Fonts/Arial Bold.ttf'
p1357
sg21
g22
sbag7
(g8
g9
NtRp1358
(dp1359
g12
g13
sg14
S'Nueva Std'
p1360
sg16
I700
sg17
g13
sg18
g13
sg19
S'/Library/Fonts/NuevaStd-Bold.otf'
p1361
sg21
g22
sbag7
(g8
g9
NtRp1362
(dp1363
g12
g13
sg14
S'Georgia'
p1364
sg16
I700
sg17
g13
sg18
g13
sg19
S'/Library/Fonts/Georgia Bold.ttf'
p1365
sg21
g22
sbag7
(g8
g9
NtRp1366
(dp1367
g12
g13
sg14
S'STIXIntegralsD'
p1368
sg16
I400
sg17
g13
sg18
g13
sg19
S'/Library/Fonts/STIXIntDReg.otf'
p1369
sg21
g22
sbag7
(g8
g9
NtRp1370
(dp1371
g12
g74
sg14
S'Adobe Caslon Pro'
p1372
sg16
I700
sg17
g13
sg18
g13
sg19
S'/Library/Fonts/ACaslonPro-BoldItalic.otf'
p1373
sg21
g22
sbag7
(g8
g9
NtRp1374
(dp1375
g12
g13
sg14
S'System Font'
p1376
sg16
I400
sg17
g13
sg18
g13
sg19
S'/System/Library/Fonts/SFNSSymbols-Regular.otf'
p1377
sg21
g22
sbag7
(g8
g9
NtRp1378
(dp1379
g12
g13
sg14
S'Adobe Devanagari'
p1380
sg16
I700
sg17
g13
sg18
g13
sg19
S'/Library/Fonts/AdobeDevanagari-Bold.otf'
p1381
sg21
g22
sbag7
(g8
g9
NtRp1382
(dp1383
g12
g13
sg14
S'MT Extra Tiger'
p1384
sg16
I400
sg17
g13
sg18
g13
sg19
S'/Library/Fonts/Mt Extra Tiger.ttf'
p1385
sg21
g22
sbag7
(g8
g9
NtRp1386
(dp1387
g12
g13
sg14
S'.SF Compact Display'
p1388
sg16
I400
sg17
g13
sg18
g13
sg19
S'/System/Library/Fonts/SFCompactDisplay-Black.otf'
p1389
sg21
g22
sbag7
(g8
g9
NtRp1390
(dp1391
g12
g13
sg14
S'STIXSizeTwoSym'
p1392
sg16
I700
sg17
g13
sg18
g13
sg19
S'/Library/Fonts/STIXSizTwoSymBol.otf'
p1393
sg21
g22
sbag7
(g8
g9
NtRp1394
(dp1395
g12
g13
sg14
S'Wingdings'
p1396
sg16
I400
sg17
g13
sg18
g13
sg19
S'/Library/Fonts/Wingdings.ttf'
p1397
sg21
g22
sbag7
(g8
g9
NtRp1398
(dp1399
g12
g13
sg14
S'Impact'
p1400
sg16
I400
sg17
g13
sg18
g13
sg19
S'/Library/Fonts/Impact.ttf'
p1401
sg21
g22
sbag7
(g8
g9
NtRp1402
(dp1403
g12
g13
sg14
S'Cambria'
p1404
sg16
I700
sg17
g13
sg18
g13
sg19
S'/Users/danieh65/Library/Fonts/Cambria Bold.ttf'
p1405
sg21
g22
sbag7
(g8
g9
NtRp1406
(dp1407
g12
g13
sg14
S'Apple Braille'
p1408
sg16
I400
sg17
g13
sg18
g13
sg19
S'/System/Library/Fonts/Apple Braille Outline 6 Dot.ttf'
p1409
sg21
g22
sbag7
(g8
g9
NtRp1410
(dp1411
g12
g13
sg14
S'Tahoma'
p1412
sg16
I700
sg17
g13
sg18
g13
sg19
S'/Library/Fonts/Tahoma Bold.ttf'
p1413
sg21
g22
sbag7
(g8
g9
NtRp1414
(dp1415
g12
g74
sg14
S'Georgia'
p1416
sg16
I700
sg17
g13
sg18
g13
sg19
S'/Library/Fonts/Georgia Bold Italic.ttf'
p1417
sg21
g22
sbag7
(g8
g9
NtRp1418
(dp1419
g12
g13
sg14
S'Tekton Pro'
p1420
sg16
I700
sg17
g192
sg18
g13
sg19
S'/Library/Fonts/TektonPro-BoldCond.otf'
p1421
sg21
g22
sbag7
(g8
g9
NtRp1422
(dp1423
g12
g13
sg14
S'STIXIntegralsUpD'
p1424
sg16
I400
sg17
g13
sg18
g13
sg19
S'/Library/Fonts/STIXIntUpDReg.otf'
p1425
sg21
g22
sbag7
(g8
g9
NtRp1426
(dp1427
g12
g13
sg14
S'Kozuka Gothic Pro'
p1428
sg16
I400
sg17
g13
sg18
g13
sg19
S'/Library/Fonts/KozGoPro-Regular.otf'
p1429
sg21
g22
sbag7
(g8
g9
NtRp1430
(dp1431
g12
g13
sg14
S'Kozuka Mincho Pr6N'
p1432
sg16
I400
sg17
g13
sg18
g13
sg19
S'/Library/Fonts/KozMinPr6N-Medium.otf'
p1433
sg21
g22
sbag7
(g8
g9
NtRp1434
(dp1435
g12
g13
sg14
S'Myriad Pro'
p1436
sg16
I400
sg17
g192
sg18
g13
sg19
S'/Library/Fonts/MyriadPro-Cond.otf'
p1437
sg21
g22
sbag7
(g8
g9
NtRp1438
(dp1439
g12
g74
sg14
S'Myriad Arabic'
p1440
sg16
I700
sg17
g13
sg18
g13
sg19
S'/Library/Fonts/MyriadArabic-BoldIt.otf'
p1441
sg21
g22
sbag7
(g8
g9
NtRp1442
(dp1443
g12
g13
sg14
S'.SF Compact Rounded'
p1444
sg16
I400
sg17
g13
sg18
g13
sg19
S'/System/Library/Fonts/SFCompactRounded-Heavy.otf'
p1445
sg21
g22
sbag7
(g8
g9
NtRp1446
(dp1447
g12
g13
sg14
S'System Font'
p1448
sg16
I400
sg17
g13
sg18
g13
sg19
S'/System/Library/Fonts/SFNSDisplay-ThinItalic.otf'
p1449
sg21
g22
sbag7
(g8
g9
NtRp1450
(dp1451
g12
g13
sg14
S'System Font'
p1452
sg16
I400
sg17
g13
sg18
g13
sg19
S'/System/Library/Fonts/SFNSTextItalic.ttf'
p1453
sg21
g22
sbasS'defaultFamily'
p1454
(dp1455
S'afm'
p1456
S'Helvetica'
p1457
sS'ttf'
p1458
S'Bitstream Vera Sans'
p1459
ssS'ttffiles'
p1460
(lp1461
S'/System/Library/Frameworks/Python.framework/Versions/2.7/Extras/lib/python/matplotlib/mpl-data/fonts/ttf/cmex10.ttf'
p1462
aS'/System/Library/Frameworks/Python.framework/Versions/2.7/Extras/lib/python/matplotlib/mpl-data/fonts/ttf/VeraBI.ttf'
p1463
aS'/System/Library/Frameworks/Python.framework/Versions/2.7/Extras/lib/python/matplotlib/mpl-data/fonts/ttf/STIXNonUni.ttf'
p1464
aS'/System/Library/Frameworks/Python.framework/Versions/2.7/Extras/lib/python/matplotlib/mpl-data/fonts/ttf/STIXNonUniBol.ttf'
p1465
aS'/System/Library/Frameworks/Python.framework/Versions/2.7/Extras/lib/python/matplotlib/mpl-data/fonts/ttf/VeraMoBd.ttf'
p1466
aS'/System/Library/Frameworks/Python.framework/Versions/2.7/Extras/lib/python/matplotlib/mpl-data/fonts/ttf/cmr10.ttf'
p1467
aS'/System/Library/Frameworks/Python.framework/Versions/2.7/Extras/lib/python/matplotlib/mpl-data/fonts/ttf/STIXGeneral.ttf'
p1468
aS'/System/Library/Frameworks/Python.framework/Versions/2.7/Extras/lib/python/matplotlib/mpl-data/fonts/ttf/VeraMoIt.ttf'
p1469
aS'/System/Library/Frameworks/Python.framework/Versions/2.7/Extras/lib/python/matplotlib/mpl-data/fonts/ttf/VeraSe.ttf'
p1470
aS'/System/Library/Frameworks/Python.framework/Versions/2.7/Extras/lib/python/matplotlib/mpl-data/fonts/ttf/STIXSizFiveSymReg.ttf'
p1471
aS'/System/Library/Frameworks/Python.framework/Versions/2.7/Extras/lib/python/matplotlib/mpl-data/fonts/ttf/VeraMono.ttf'
p1472
aS'/System/Library/Frameworks/Python.framework/Versions/2.7/Extras/lib/python/matplotlib/mpl-data/fonts/ttf/VeraMoBI.ttf'
p1473
aS'/System/Library/Frameworks/Python.framework/Versions/2.7/Extras/lib/python/matplotlib/mpl-data/fonts/ttf/STIXGeneralBol.ttf'
p1474
aS'/System/Library/Frameworks/Python.framework/Versions/2.7/Extras/lib/python/matplotlib/mpl-data/fonts/ttf/STIXGeneralItalic.ttf'
p1475
aS'/System/Library/Frameworks/Python.framework/Versions/2.7/Extras/lib/python/matplotlib/mpl-data/fonts/ttf/STIXSizFourSymReg.ttf'
p1476
aS'/System/Library/Frameworks/Python.framework/Versions/2.7/Extras/lib/python/matplotlib/mpl-data/fonts/ttf/STIXSizThreeSymBol.ttf'
p1477
aS'/System/Library/Frameworks/Python.framework/Versions/2.7/Extras/lib/python/matplotlib/mpl-data/fonts/ttf/STIXSizOneSymBol.ttf'
p1478
aS'/System/Library/Frameworks/Python.framework/Versions/2.7/Extras/lib/python/matplotlib/mpl-data/fonts/ttf/STIXSizFourSymBol.ttf'
p1479
aS'/System/Library/Frameworks/Python.framework/Versions/2.7/Extras/lib/python/matplotlib/mpl-data/fonts/ttf/VeraBd.ttf'
p1480
aS'/System/Library/Frameworks/Python.framework/Versions/2.7/Extras/lib/python/matplotlib/mpl-data/fonts/ttf/cmsy10.ttf'
p1481
aS'/System/Library/Frameworks/Python.framework/Versions/2.7/Extras/lib/python/matplotlib/mpl-data/fonts/ttf/STIXSizTwoSymReg.ttf'
p1482
aS'/System/Library/Frameworks/Python.framework/Versions/2.7/Extras/lib/python/matplotlib/mpl-data/fonts/ttf/STIXNonUniBolIta.ttf'
p1483
aS'/System/Library/Frameworks/Python.framework/Versions/2.7/Extras/lib/python/matplotlib/mpl-data/fonts/ttf/cmb10.ttf'
p1484
aS'/System/Library/Frameworks/Python.framework/Versions/2.7/Extras/lib/python/matplotlib/mpl-data/fonts/ttf/cmmi10.ttf'
p1485
aS'/System/Library/Frameworks/Python.framework/Versions/2.7/Extras/lib/python/matplotlib/mpl-data/fonts/ttf/VeraIt.ttf'
p1486
aS'/System/Library/Frameworks/Python.framework/Versions/2.7/Extras/lib/python/matplotlib/mpl-data/fonts/ttf/STIXSizOneSymReg.ttf'
p1487
aS'/System/Library/Frameworks/Python.framework/Versions/2.7/Extras/lib/python/matplotlib/mpl-data/fonts/ttf/Vera.ttf'
p1488
aS'/System/Library/Frameworks/Python.framework/Versions/2.7/Extras/lib/python/matplotlib/mpl-data/fonts/ttf/cmss10.ttf'
p1489
aS'/System/Library/Frameworks/Python.framework/Versions/2.7/Extras/lib/python/matplotlib/mpl-data/fonts/ttf/VeraSeBd.ttf'
p1490
aS'/System/Library/Frameworks/Python.framework/Versions/2.7/Extras/lib/python/matplotlib/mpl-data/fonts/ttf/STIXSizTwoSymBol.ttf'
p1491
aS'/System/Library/Frameworks/Python.framework/Versions/2.7/Extras/lib/python/matplotlib/mpl-data/fonts/ttf/STIXNonUniIta.ttf'
p1492
aS'/System/Library/Frameworks/Python.framework/Versions/2.7/Extras/lib/python/matplotlib/mpl-data/fonts/ttf/cmtt10.ttf'
p1493
aS'/System/Library/Frameworks/Python.framework/Versions/2.7/Extras/lib/python/matplotlib/mpl-data/fonts/ttf/STIXGeneralBolIta.ttf'
p1494
aS'/System/Library/Frameworks/Python.framework/Versions/2.7/Extras/lib/python/matplotlib/mpl-data/fonts/ttf/STIXSizThreeSymReg.ttf'
p1495
aS'/System/Library/Fonts/SFNSDisplayCondensed-Regular.otf'
p1496
aS'/Library/Fonts/Trebuchet MS Italic.ttf'
p1497
aS'/Users/danieh65/Library/Fonts/Calibri.ttf'
p1498
aS'/Library/Fonts/Hoefler Text Ornaments.ttf'
p1499
aS'/Library/Fonts/KozGoPr6N-ExtraLight.otf'
p1500
aS'/Library/Fonts/Times New Roman.ttf'
p1501
aS'/Library/Fonts/AdobeArabic-Italic.otf'
p1502
aS'/Library/Fonts/KozGoPro-Bold.otf'
p1503
aS'/Library/Fonts/MyriadPro-CondIt.otf'
p1504
aS'/Library/Fonts/OCRAStd.otf'
p1505
aS'/Library/Fonts/RosewoodStd-Regular.otf'
p1506
aS'/Library/Fonts/KozGoPro-Medium.otf'
p1507
aS'/Library/Fonts/Verdana Bold.ttf'
p1508
aS'/Library/Fonts/PoplarStd.otf'
p1509
aS'/System/Library/Fonts/SFCompactRounded-Medium.otf'
p1510
aS'/Library/Fonts/AdobeArabic-Bold.otf'
p1511
aS'/Library/Fonts/Arial Unicode.ttf'
p1512
aS'/Library/Fonts/STIXSizThreeSymReg.otf'
p1513
aS'/Library/Fonts/KozGoPr6N-Heavy.otf'
p1514
aS'/Library/Fonts/DIN Condensed Bold.ttf'
p1515
aS'/Library/Fonts/AdobeKaitiStd-Regular.otf'
p1516
aS'/Users/danieh65/Library/Fonts/Corbel Italic.ttf'
p1517
aS'/System/Library/Fonts/SFNSDisplay-BoldItalic.otf'
p1518
aS'/Library/Fonts/ChaparralPro-LightIt.otf'
p1519
aS'/Library/Fonts/AdobeDevanagari-Italic.otf'
p1520
aS'/Library/Fonts/Gurmukhi.ttf'
p1521
aS'/Library/Fonts/MyriadArabic-Regular.otf'
p1522
aS'/Library/Fonts/KozMinPr6N-Regular.otf'
p1523
aS'/Library/Fonts/Arial Rounded Bold.ttf'
p1524
aS'/Library/Fonts/AppleGothic.ttf'
p1525
aS'/System/Library/Fonts/SFNSTextCondensed-Heavy.otf'
p1526
aS'/Library/Fonts/LetterGothicStd-Slanted.otf'
p1527
aS'/Library/Fonts/Andale Mono.ttf'
p1528
aS'/System/Library/Fonts/SFNSTextCondensed-Bold.otf'
p1529
aS'/Users/danieh65/Library/Fonts/Consolas Bold.ttf'
p1530
aS'/Library/Fonts/STIXNonUniBol.otf'
p1531
aS'/Users/danieh65/Library/Fonts/Constantia Bold.ttf'
p1532
aS'/System/Library/Fonts/SFNSDisplayCondensed-Bold.otf'
p1533
aS'/System/Library/Fonts/SFCompactRounded-Black.otf'
p1534
aS'/Library/Fonts/NISC18030.ttf'
p1535
aS'/Users/danieh65/Library/Fonts/Calibri Bold Italic.ttf'
p1536
aS'/Library/Fonts/NuevaStd-CondItalic.otf'
p1537
aS'/Library/Fonts/NuevaStd-Cond.otf'
p1538
aS'/Users/danieh65/Library/Fonts/1979_dot_matrix.ttf'
p1539
aS'/System/Library/Fonts/SFCompactRounded-Ultralight.otf'
p1540
aS'/System/Library/Fonts/SFNSDisplayCondensed-Semibold.otf'
p1541
aS'/Library/Fonts/AppleMyungjo.ttf'
p1542
aS'/System/Library/Fonts/SFCompactDisplay-Bold.otf'
p1543
aS'/Library/Fonts/Mishafi Gold.ttf'
p1544
aS'/Users/danieh65/Library/Fonts/Constantia.ttf'
p1545
aS'/System/Library/Fonts/ZapfDingbats.ttf'
p1546
aS'/System/Library/Fonts/SFCompactRounded-Semibold.otf'
p1547
aS'/Users/danieh65/Library/Fonts/Calibri Bold.ttf'
p1548
aS'/System/Library/Fonts/SFCompactText-BoldItalic.otf'
p1549
aS'/Library/Fonts/Herculanum.ttf'
p1550
aS'/Library/Fonts/STIXIntDBol.otf'
p1551
aS'/Library/Fonts/HoboStd.otf'
p1552
aS'/Users/danieh65/Library/Fonts/Candara Italic.ttf'
p1553
aS'/System/Library/Fonts/SFNSDisplay-BlackItalic.otf'
p1554
aS'/Library/Fonts/MyriadHebrew-Regular.otf'
p1555
aS'/Library/Fonts/DIN Alternate Bold.ttf'
p1556
aS'/Users/danieh65/Library/Fonts/Consolas.ttf'
p1557
aS'/Library/Fonts/AGaramondPro-Bold.otf'
p1558
aS'/Library/Fonts/StencilStd.otf'
p1559
aS'/Library/Fonts/STIXSizThreeSymBol.otf'
p1560
aS'/System/Library/Fonts/SFNSDisplay.ttf'
p1561
aS'/Library/Fonts/Courier New.ttf'
p1562
aS'/Library/Fonts/Arial Narrow Bold Italic.ttf'
p1563
aS'/Library/Fonts/Luminari.ttf'
p1564
aS'/Library/Fonts/Zapfino.ttf'
p1565
aS'/Library/Fonts/MyriadPro-Regular.otf'
p1566
aS'/Library/Fonts/Times New Roman Italic.ttf'
p1567
aS'/System/Library/Fonts/SFNSTextCondensed-Medium.otf'
p1568
aS'/Library/Fonts/Krungthep.ttf'
p1569
aS'/System/Library/Fonts/SFNSDisplayCondensed-Light.otf'
p1570
aS'/System/Library/Fonts/Apple Symbols.ttf'
p1571
aS'/System/Library/Fonts/Apple Braille Pinpoint 8 Dot.ttf'
p1572
aS'/Library/Fonts/Georgia.ttf'
p1573
aS'/Library/Fonts/NuevaStd-BoldCondItalic.otf'
p1574
aS'/Library/Fonts/STIXIntSmBol.otf'
p1575
aS'/Library/Fonts/CharlemagneStd-Bold.otf'
p1576
aS'/Library/Fonts/AdobeNaskh-Medium.otf'
p1577
aS'/Library/Fonts/PrestigeEliteStd-Bd.otf'
p1578
aS'/Library/Fonts/AdobeMingStd-Light.otf'
p1579
aS'/System/Library/Fonts/SFCompactText-HeavyItalic.otf'
p1580
aS'/Library/Fonts/MyriadHebrew-Bold.otf'
p1581
aS'/Library/Fonts/MyriadPro-It.otf'
p1582
aS'/Library/Fonts/Bradley Hand Bold.ttf'
p1583
aS'/Library/Fonts/CooperBlackStd-Italic.otf'
p1584
aS'/Users/danieh65/Library/Fonts/Candara.ttf'
p1585
aS'/System/Library/Fonts/SFCompactRounded-Thin.otf'
p1586
aS'/Library/Fonts/CooperBlackStd.otf'
p1587
aS'/Library/Fonts/Arial Narrow Bold.ttf'
p1588
aS'/Library/Fonts/Times New Roman Bold Italic.ttf'
p1589
aS'/Library/Fonts/MinionPro-It.otf'
p1590
aS'/Library/Fonts/Arial Narrow Italic.ttf'
p1591
aS'/System/Library/Fonts/SFCompactRounded-Light.otf'
p1592
aS'/System/Library/Fonts/SFCompactDisplay-Regular.otf'
p1593
aS'/Library/Fonts/KozGoPro-ExtraLight.otf'
p1594
aS'/System/Library/Fonts/SFNSDisplayCondensed-Ultralight.otf'
p1595
aS'/Library/Fonts/MinionPro-BoldCn.otf'
p1596
aS'/System/Library/Fonts/SFNSDisplay-MediumItalic.otf'
p1597
aS'/Library/Fonts/AdobeDevanagari-Regular.otf'
p1598
aS'/System/Library/Fonts/Apple Braille Outline 8 Dot.ttf'
p1599
aS'/Users/danieh65/Library/Fonts/Dotmatrx.ttf'
p1600
aS'/Library/Fonts/KozMinPro-Light.otf'
p1601
aS'/Users/danieh65/Library/Fonts/Corbel.ttf'
p1602
aS'/Library/Fonts/ChaparralPro-BoldIt.otf'
p1603
aS'/Library/Fonts/PlantagenetCherokee.ttf'
p1604
aS'/Users/danieh65/Library/Fonts/Corbel Bold Italic.ttf'
p1605
aS'/Library/Fonts/Times New Roman Bold.ttf'
p1606
aS'/Library/Fonts/KozGoPr6N-Regular.otf'
p1607
aS'/System/Library/Fonts/SFCompactDisplay-Semibold.otf'
p1608
aS'/Library/Fonts/AdobeHeitiStd-Regular.otf'
p1609
aS'/Library/Fonts/Arial Bold Italic.ttf'
p1610
aS'/System/Library/Fonts/SFNSTextCondensed-Regular.otf'
p1611
aS'/Library/Fonts/TektonPro-Bold.otf'
p1612
aS'/Library/Fonts/AGaramondPro-Italic.otf'
p1613
aS'/Library/Fonts/STIXVar.otf'
p1614
aS'/Library/Fonts/Mishafi.ttf'
p1615
aS'/Library/Fonts/STIXVarBol.otf'
p1616
aS'/Library/Fonts/AdobeSongStd-Light.otf'
p1617
aS'/Library/Fonts/ChaparralPro-Bold.otf'
p1618
aS'/System/Library/Fonts/SFCompactText-Regular.otf'
p1619
aS'/System/Library/Fonts/SFCompactText-Semibold.otf'
p1620
aS'/System/Library/Fonts/SFCompactDisplay-Medium.otf'
p1621
aS'/Library/Fonts/BirchStd.otf'
p1622
aS'/Library/Fonts/NuevaStd-Italic.otf'
p1623
aS'/Users/danieh65/Library/Fonts/Cambria Italic.ttf'
p1624
aS'/Users/danieh65/Library/Fonts/Candara Bold.ttf'
p1625
aS'/System/Library/Fonts/LastResort.otf'
p1626
aS'/Library/Fonts/STIXIntUpBol.otf'
p1627
aS'/Library/Fonts/STIXGeneralBol.otf'
p1628
aS'/Library/Fonts/AdobeHebrew-BoldItalic.otf'
p1629
aS'/Library/Fonts/Skia.ttf'
p1630
aS'/Library/Fonts/LetterGothicStd.otf'
p1631
aS'/Library/Fonts/KozGoPr6N-Bold.otf'
p1632
aS'/Library/Fonts/AdobeArabic-Regular.otf'
p1633
aS'/Library/Fonts/Farisi.ttf'
p1634
aS'/System/Library/Fonts/SFNSText.ttf'
p1635
aS'/Library/Fonts/ACaslonPro-Semibold.otf'
p1636
aS'/System/Library/Fonts/SFCompactDisplay-Light.otf'
p1637
aS'/Library/Fonts/Kokonor.ttf'
p1638
aS'/Library/Fonts/Bodoni 72 Smallcaps Book.ttf'
p1639
aS'/System/Library/Fonts/SFCompactText-Bold.otf'
p1640
aS'/Library/Fonts/Diwan Thuluth.ttf'
p1641
aS'/Library/Fonts/KozMinPro-Heavy.otf'
p1642
aS'/Library/Fonts/Symbol Tiger Expert.ttf'
p1643
aS'/Library/Fonts/TektonPro-BoldObl.otf'
p1644
aS'/Library/Fonts/LithosPro-Regular.otf'
p1645
aS'/Library/Fonts/Trebuchet MS Bold.ttf'
p1646
aS'/Library/Fonts/TrajanPro-Regular.otf'
p1647
aS'/Library/Fonts/KozMinPro-Bold.otf'
p1648
aS'/Library/Fonts/AdobeMyungjoStd-Medium.otf'
p1649
aS'/Library/Fonts/LetterGothicStd-BoldSlanted.otf'
p1650
aS'/Library/Fonts/NuevaStd-BoldCond.otf'
p1651
aS'/Library/Fonts/STIXNonUniBolIta.otf'
p1652
aS'/Library/Fonts/STIXSizFiveSymReg.otf'
p1653
aS'/System/Library/Fonts/Symbol.ttf'
p1654
aS'/Library/Fonts/Georgia Italic.ttf'
p1655
aS'/Library/Fonts/BrushScriptStd.otf'
p1656
aS'/Library/Fonts/AdobeGothicStd-Bold.otf'
p1657
aS'/Library/Fonts/AdobeHebrew-Bold.otf'
p1658
aS'/Library/Fonts/Verdana.ttf'
p1659
aS'/Library/Fonts/Courier New Bold Italic.ttf'
p1660
aS'/Library/Fonts/Arial Italic.ttf'
p1661
aS'/System/Library/Fonts/SFNSDisplay-LightItalic.otf'
p1662
aS'/Library/Fonts/MyriadPro-Semibold.otf'
p1663
aS'/Library/Fonts/AGaramondPro-Regular.otf'
p1664
aS'/Library/Fonts/MyriadArabic-Bold.otf'
p1665
aS'/Users/danieh65/Library/Fonts/DOTMATRI.TTF'
p1666
aS'/Library/Fonts/TrajanPro-Bold.otf'
p1667
aS'/Library/Fonts/AdobeArabic-BoldItalic.otf'
p1668
aS'/Users/danieh65/Library/Fonts/Constantia Italic.ttf'
p1669
aS'/System/Library/Fonts/SFCompactText-Light.otf'
p1670
aS'/System/Library/Fonts/SFNSDisplayCondensed-Thin.otf'
p1671
aS'/Library/Fonts/ChaparralPro-Regular.otf'
p1672
aS'/Users/danieh65/Library/Fonts/Constantia Bold Italic.ttf'
p1673
aS'/Library/Fonts/MyriadPro-BoldCond.otf'
p1674
aS'/Library/Fonts/KozMinPr6N-Bold.otf'
p1675
aS'/Library/Fonts/Verdana Bold Italic.ttf'
p1676
aS'/Library/Fonts/Arial.ttf'
p1677
aS'/System/Library/Fonts/SFNSDisplayCondensed-Black.otf'
p1678
aS'/Library/Fonts/STIXIntSmReg.otf'
p1679
aS'/Library/Fonts/KozMinPro-Medium.otf'
p1680
aS'/Library/Fonts/Verdana Italic.ttf'
p1681
aS'/Library/Fonts/AdobeDevanagari-BoldItalic.otf'
p1682
aS'/System/Library/Fonts/Apple Braille.ttf'
p1683
aS'/Library/Fonts/Khmer Sangam MN.ttf'
p1684
aS'/Users/danieh65/Library/Fonts/5x5dots.ttf'
p1685
aS'/System/Library/Fonts/SFCompactText-Heavy.otf'
p1686
aS'/System/Library/Fonts/SFNSDisplay-HeavyItalic.otf'
p1687
aS'/Library/Fonts/ACaslonPro-Bold.otf'
p1688
aS'/Library/Fonts/Chalkduster.ttf'
p1689
aS'/Users/danieh65/Library/Fonts/Consolas Italic.ttf'
p1690
aS'/Library/Fonts/MinionPro-Regular.otf'
p1691
aS'/System/Library/Fonts/SFNSDisplayCondensed-Heavy.otf'
p1692
aS'/Library/Fonts/STIXNonUni.otf'
p1693
aS'/Library/Fonts/MinionPro-BoldIt.otf'
p1694
aS'/Library/Fonts/ACaslonPro-Regular.otf'
p1695
aS'/Library/Fonts/STIXNonUniIta.otf'
p1696
aS'/Library/Fonts/STIXIntUpReg.otf'
p1697
aS'/Library/Fonts/MesquiteStd.otf'
p1698
aS'/Library/Fonts/TektonPro-BoldExt.otf'
p1699
aS'/Library/Fonts/ChaparralPro-Italic.otf'
p1700
aS'/Library/Fonts/STIXGeneralBolIta.otf'
p1701
aS'/Library/Fonts/Trebuchet MS.ttf'
p1702
aS'/System/Library/Fonts/SFNSDisplay-SemiboldItalic.otf'
p1703
aS'/Users/danieh65/Library/Fonts/Cambria Bold Italic.ttf'
p1704
aS'/Library/Fonts/ACaslonPro-Italic.otf'
p1705
aS'/Library/Fonts/Courier New Bold.ttf'
p1706
aS'/Library/Fonts/BigCaslon.ttf'
p1707
aS'/Library/Fonts/MinionPro-Semibold.otf'
p1708
aS'/System/Library/Fonts/SFNSTextCondensed-Semibold.otf'
p1709
aS'/Library/Fonts/AGaramondPro-BoldItalic.otf'
p1710
aS'/Library/Fonts/AdobeHebrew-Italic.otf'
p1711
aS'/Library/Fonts/Ayuthaya.ttf'
p1712
aS'/System/Library/Fonts/SFCompactText-SemiboldItalic.otf'
p1713
aS'/System/Library/Fonts/SFCompactRounded-Bold.otf'
p1714
aS'/Library/Fonts/AdobeFangsongStd-Regular.otf'
p1715
aS'/Library/Fonts/OratorStd.otf'
p1716
aS'/Library/Fonts/Webdings.ttf'
p1717
aS'/Library/Fonts/Arial Narrow.ttf'
p1718
aS'/Library/Fonts/BlackoakStd.otf'
p1719
aS'/Library/Fonts/KozMinPr6N-Heavy.otf'
p1720
aS'/System/Library/Fonts/SFNSDisplay-RegularItalic.otf'
p1721
aS'/Library/Fonts/Trebuchet MS Bold Italic.ttf'
p1722
aS'/Library/Fonts/ACaslonPro-SemiboldItalic.otf'
p1723
aS'/System/Library/Fonts/SFNSDisplay-UltralightItalic.otf'
p1724
aS'/Users/danieh65/Library/Fonts/Calibri Italic.ttf'
p1725
aS'/Library/Fonts/MinionPro-SemiboldIt.otf'
p1726
aS'/Library/Fonts/Tiger.ttf'
p1727
aS'/Library/Fonts/MyriadPro-BoldIt.otf'
p1728
aS'/Library/Fonts/KozGoPro-Heavy.otf'
p1729
aS'/Library/Fonts/Wingdings 2.ttf'
p1730
aS'/Library/Fonts/LithosPro-Black.otf'
p1731
aS'/Library/Fonts/Tahoma.ttf'
p1732
aS'/Library/Fonts/Brush Script.ttf'
p1733
aS'/Users/danieh65/Library/Fonts/Consolas Bold Italic.ttf'
p1734
aS'/System/Library/Fonts/Keyboard.ttf'
p1735
aS'/System/Library/Fonts/SFCompactText-Medium.otf'
p1736
aS'/Users/danieh65/Library/Fonts/Candara Bold Italic.ttf'
p1737
aS'/Library/Fonts/STIXGeneral.otf'
p1738
aS'/Library/Fonts/STIXSizOneSymReg.otf'
p1739
aS'/Library/Fonts/STIXIntUpSmReg.otf'
p1740
aS'/Library/Fonts/MinionPro-Bold.otf'
p1741
aS'/Library/Fonts/MyriadArabic-It.otf'
p1742
aS'/Library/Fonts/OratorStd-Slanted.otf'
p1743
aS'/Library/Fonts/MyriadHebrew-It.otf'
p1744
aS'/Users/danieh65/Library/Fonts/Cambria.ttf'
p1745
aS'/Library/Fonts/Microsoft Sans Serif.ttf'
p1746
aS'/Library/Fonts/MinionPro-MediumIt.otf'
p1747
aS'/Library/Fonts/KozMinPro-Regular.otf'
p1748
aS'/Library/Fonts/STIXIntUpDBol.otf'
p1749
aS'/Library/Fonts/MyriadPro-Bold.otf'
p1750
aS'/Library/Fonts/MinionPro-BoldCnIt.otf'
p1751
aS'/Library/Fonts/Courier New Italic.ttf'
p1752
aS'/Library/Fonts/Arial Black.ttf'
p1753
aS'/Library/Fonts/KozGoPro-Light.otf'
p1754
aS'/Library/Fonts/MyriadPro-SemiboldIt.otf'
p1755
aS'/System/Library/Fonts/SFCompactDisplay-Ultralight.otf'
p1756
aS'/System/Library/Fonts/Apple Braille Pinpoint 6 Dot.ttf'
p1757
aS'/System/Library/Fonts/SFCompactDisplay-Thin.otf'
p1758
aS'/Library/Fonts/STIXGeneralItalic.otf'
p1759
aS'/Library/Fonts/LetterGothicStd-Bold.otf'
p1760
aS'/Library/Fonts/Silom.ttf'
p1761
aS'/Library/Fonts/MyriadPro-BoldCondIt.otf'
p1762
aS'/System/Library/Fonts/SFNSDisplayCondensed-Medium.otf'
p1763
aS'/Library/Fonts/GiddyupStd.otf'
p1764
aS'/System/Library/Fonts/SFCompactText-RegularItalic.otf'
p1765
aS'/Library/Fonts/STIXSizFourSymReg.otf'
p1766
aS'/Library/Fonts/Apple Chancery.ttf'
p1767
aS'/Library/Fonts/KozMinPr6N-ExtraLight.otf'
p1768
aS'/System/Library/Fonts/SFCompactText-LightItalic.otf'
p1769
aS'/Users/danieh65/Library/Fonts/Corbel Bold.ttf'
p1770
aS'/System/Library/Fonts/SFNSTextCondensed-Light.otf'
p1771
aS'/Library/Fonts/MinionPro-Medium.otf'
p1772
aS'/Library/Fonts/KozMinPro-ExtraLight.otf'
p1773
aS'/Library/Fonts/AdobeFanHeitiStd-Bold.otf'
p1774
aS'/Library/Fonts/Tiger Expert.ttf'
p1775
aS'/Library/Fonts/Wingdings 3.ttf'
p1776
aS'/Library/Fonts/Symbol Tiger.ttf'
p1777
aS'/Library/Fonts/Comic Sans MS Bold.ttf'
p1778
aS'/System/Library/Fonts/SFCompactDisplay-Heavy.otf'
p1779
aS'/Library/Fonts/STIXIntUpSmBol.otf'
p1780
aS'/Library/Fonts/Lao Sangam MN.ttf'
p1781
aS'/Library/Fonts/Trattatello.ttf'
p1782
aS'/Library/Fonts/MyriadHebrew-BoldIt.otf'
p1783
aS'/Library/Fonts/KozGoPr6N-Light.otf'
p1784
aS'/System/Library/Fonts/SFCompactText-MediumItalic.otf'
p1785
aS'/Library/Fonts/STIXSizOneSymBol.otf'
p1786
aS'/Library/Fonts/Sathu.ttf'
p1787
aS'/Library/Fonts/Comic Sans MS.ttf'
p1788
aS'/Library/Fonts/KozMinPr6N-Light.otf'
p1789
aS'/Library/Fonts/AdobeHebrew-Regular.otf'
p1790
aS'/Library/Fonts/STIXSizTwoSymReg.otf'
p1791
aS'/Library/Fonts/Bodoni Ornaments.ttf'
p1792
aS'/Library/Fonts/STIXSizFourSymBol.otf'
p1793
aS'/Library/Fonts/KozGoPr6N-Medium.otf'
p1794
aS'/System/Library/Fonts/SFCompactRounded-Regular.otf'
p1795
aS'/Library/Fonts/Arial Bold.ttf'
p1796
aS'/Library/Fonts/NuevaStd-Bold.otf'
p1797
aS'/Library/Fonts/Georgia Bold.ttf'
p1798
aS'/Library/Fonts/STIXIntDReg.otf'
p1799
aS'/Library/Fonts/ACaslonPro-BoldItalic.otf'
p1800
aS'/System/Library/Fonts/SFNSSymbols-Regular.otf'
p1801
aS'/Library/Fonts/AdobeDevanagari-Bold.otf'
p1802
aS'/Library/Fonts/Mt Extra Tiger.ttf'
p1803
aS'/System/Library/Fonts/SFCompactDisplay-Black.otf'
p1804
aS'/Library/Fonts/STIXSizTwoSymBol.otf'
p1805
aS'/Library/Fonts/Wingdings.ttf'
p1806
aS'/Library/Fonts/Impact.ttf'
p1807
aS'/Users/danieh65/Library/Fonts/Cambria Bold.ttf'
p1808
aS'/System/Library/Fonts/Apple Braille Outline 6 Dot.ttf'
p1809
aS'/Library/Fonts/Tahoma Bold.ttf'
p1810
aS'/Library/Fonts/Georgia Bold Italic.ttf'
p1811
aS'/Library/Fonts/TektonPro-BoldCond.otf'
p1812
aS'/Library/Fonts/STIXIntUpDReg.otf'
p1813
aS'/Library/Fonts/KozGoPro-Regular.otf'
p1814
aS'/Library/Fonts/KozMinPr6N-Medium.otf'
p1815
aS'/Library/Fonts/MyriadPro-Cond.otf'
p1816
aS'/Library/Fonts/MyriadArabic-BoldIt.otf'
p1817
aS'/System/Library/Fonts/SFCompactRounded-Heavy.otf'
p1818
aS'/System/Library/Fonts/SFNSDisplay-ThinItalic.otf'
p1819
aS'/System/Library/Fonts/SFNSTextItalic.ttf'
p1820
asS'_FontManager__default_weight'
p1821
g13
sS'_version'
p1822
I101
sS'ttf_lookup_cache'
p1823
(dp1824
sS'default_size'
p1825
NsS'defaultFont'
p1826
(dp1827
g1456
S'/System/Library/Frameworks/Python.framework/Versions/2.7/Extras/lib/python/matplotlib/mpl-data/fonts/afm/phvl8a.afm'
p1828
sg1458
g1488
ssS'afmfiles'
p1829
(lp1830
g1828
aS'/System/Library/Frameworks/Python.framework/Versions/2.7/Extras/lib/python/matplotlib/mpl-data/fonts/afm/putbi8a.afm'
p1831
aS'/System/Library/Frameworks/Python.framework/Versions/2.7/Extras/lib/python/matplotlib/mpl-data/fonts/afm/pcrb8a.afm'
p1832
aS'/System/Library/Frameworks/Python.framework/Versions/2.7/Extras/lib/python/matplotlib/mpl-data/fonts/afm/phvbo8a.afm'
p1833
aS'/System/Library/Frameworks/Python.framework/Versions/2.7/Extras/lib/python/matplotlib/mpl-data/fonts/afm/phvb8an.afm'
p1834
aS'/System/Library/Frameworks/Python.framework/Versions/2.7/Extras/lib/python/matplotlib/mpl-data/fonts/pdfcorefonts/Symbol.afm'
p1835
aS'/System/Library/Frameworks/Python.framework/Versions/2.7/Extras/lib/python/matplotlib/mpl-data/fonts/afm/phvbo8an.afm'
p1836
aS'/System/Library/Frameworks/Python.framework/Versions/2.7/Extras/lib/python/matplotlib/mpl-data/fonts/pdfcorefonts/Times-Roman.afm'
p1837
aS'/System/Library/Frameworks/Python.framework/Versions/2.7/Extras/lib/python/matplotlib/mpl-data/fonts/afm/pncr8a.afm'
p1838
aS'/System/Library/Frameworks/Python.framework/Versions/2.7/Extras/lib/python/matplotlib/mpl-data/fonts/afm/phvlo8a.afm'
p1839
aS'/System/Library/Frameworks/Python.framework/Versions/2.7/Extras/lib/python/matplotlib/mpl-data/fonts/pdfcorefonts/Times-Italic.afm'
p1840
aS'/System/Library/Frameworks/Python.framework/Versions/2.7/Extras/lib/python/matplotlib/mpl-data/fonts/pdfcorefonts/Helvetica.afm'
p1841
aS'/System/Library/Frameworks/Python.framework/Versions/2.7/Extras/lib/python/matplotlib/mpl-data/fonts/afm/phvr8an.afm'
p1842
aS'/System/Library/Frameworks/Python.framework/Versions/2.7/Extras/lib/python/matplotlib/mpl-data/fonts/pdfcorefonts/Courier-Bold.afm'
p1843
aS'/System/Library/Frameworks/Python.framework/Versions/2.7/Extras/lib/python/matplotlib/mpl-data/fonts/pdfcorefonts/Helvetica-Bold.afm'
p1844
aS'/System/Library/Frameworks/Python.framework/Versions/2.7/Extras/lib/python/matplotlib/mpl-data/fonts/afm/ptmb8a.afm'
p1845
aS'/System/Library/Frameworks/Python.framework/Versions/2.7/Extras/lib/python/matplotlib/mpl-data/fonts/afm/pagd8a.afm'
p1846
aS'/System/Library/Frameworks/Python.framework/Versions/2.7/Extras/lib/python/matplotlib/mpl-data/fonts/pdfcorefonts/ZapfDingbats.afm'
p1847
aS'/System/Library/Frameworks/Python.framework/Versions/2.7/Extras/lib/python/matplotlib/mpl-data/fonts/afm/putr8a.afm'
p1848
aS'/System/Library/Frameworks/Python.framework/Versions/2.7/Extras/lib/python/matplotlib/mpl-data/fonts/afm/cmtt10.afm'
p1849
aS'/System/Library/Frameworks/Python.framework/Versions/2.7/Extras/lib/python/matplotlib/mpl-data/fonts/afm/pagko8a.afm'
p1850
aS'/System/Library/Frameworks/Python.framework/Versions/2.7/Extras/lib/python/matplotlib/mpl-data/fonts/afm/ptmr8a.afm'
p1851
aS'/System/Library/Frameworks/Python.framework/Versions/2.7/Extras/lib/python/matplotlib/mpl-data/fonts/pdfcorefonts/Helvetica-Oblique.afm'
p1852
aS'/System/Library/Frameworks/Python.framework/Versions/2.7/Extras/lib/python/matplotlib/mpl-data/fonts/afm/cmr10.afm'
p1853
aS'/System/Library/Frameworks/Python.framework/Versions/2.7/Extras/lib/python/matplotlib/mpl-data/fonts/pdfcorefonts/Courier-Oblique.afm'
p1854
aS'/System/Library/Frameworks/Python.framework/Versions/2.7/Extras/lib/python/matplotlib/mpl-data/fonts/afm/pcrro8a.afm'
p1855
aS'/System/Library/Frameworks/Python.framework/Versions/2.7/Extras/lib/python/matplotlib/mpl-data/fonts/afm/pcrbo8a.afm'
p1856
aS'/System/Library/Frameworks/Python.framework/Versions/2.7/Extras/lib/python/matplotlib/mpl-data/fonts/pdfcorefonts/Courier.afm'
p1857
aS'/System/Library/Frameworks/Python.framework/Versions/2.7/Extras/lib/python/matplotlib/mpl-data/fonts/afm/ptmbi8a.afm'
p1858
aS'/System/Library/Frameworks/Python.framework/Versions/2.7/Extras/lib/python/matplotlib/mpl-data/fonts/afm/pagdo8a.afm'
p1859
aS'/System/Library/Frameworks/Python.framework/Versions/2.7/Extras/lib/python/matplotlib/mpl-data/fonts/pdfcorefonts/Times-BoldItalic.afm'
p1860
aS'/System/Library/Frameworks/Python.framework/Versions/2.7/Extras/lib/python/matplotlib/mpl-data/fonts/pdfcorefonts/Helvetica-BoldOblique.afm'
p1861
aS'/System/Library/Frameworks/Python.framework/Versions/2.7/Extras/lib/python/matplotlib/mpl-data/fonts/afm/pbkd8a.afm'
p1862
aS'/System/Library/Frameworks/Python.framework/Versions/2.7/Extras/lib/python/matplotlib/mpl-data/fonts/afm/pplr8a.afm'
p1863
aS'/System/Library/Frameworks/Python.framework/Versions/2.7/Extras/lib/python/matplotlib/mpl-data/fonts/afm/pbkdi8a.afm'
p1864
aS'/System/Library/Frameworks/Python.framework/Versions/2.7/Extras/lib/python/matplotlib/mpl-data/fonts/afm/pagk8a.afm'
p1865
aS'/System/Library/Frameworks/Python.framework/Versions/2.7/Extras/lib/python/matplotlib/mpl-data/fonts/afm/putri8a.afm'
p1866
aS'/System/Library/Frameworks/Python.framework/Versions/2.7/Extras/lib/python/matplotlib/mpl-data/fonts/afm/phvr8a.afm'
p1867
aS'/System/Library/Frameworks/Python.framework/Versions/2.7/Extras/lib/python/matplotlib/mpl-data/fonts/afm/pbkl8a.afm'
p1868
aS'/System/Library/Frameworks/Python.framework/Versions/2.7/Extras/lib/python/matplotlib/mpl-data/fonts/afm/phvro8a.afm'
p1869
aS'/System/Library/Frameworks/Python.framework/Versions/2.7/Extras/lib/python/matplotlib/mpl-data/fonts/afm/psyr.afm'
p1870
aS'/System/Library/Frameworks/Python.framework/Versions/2.7/Extras/lib/python/matplotlib/mpl-data/fonts/pdfcorefonts/Times-Bold.afm'
p1871
aS'/System/Library/Frameworks/Python.framework/Versions/2.7/Extras/lib/python/matplotlib/mpl-data/fonts/afm/pplri8a.afm'
p1872
aS'/System/Library/Frameworks/Python.framework/Versions/2.7/Extras/lib/python/matplotlib/mpl-data/fonts/afm/pncb8a.afm'
p1873
aS'/System/Library/Frameworks/Python.framework/Versions/2.7/Extras/lib/python/matplotlib/mpl-data/fonts/afm/putb8a.afm'
p1874
aS'/System/Library/Frameworks/Python.framework/Versions/2.7/Extras/lib/python/matplotlib/mpl-data/fonts/afm/pncbi8a.afm'
p1875
aS'/System/Library/Frameworks/Python.framework/Versions/2.7/Extras/lib/python/matplotlib/mpl-data/fonts/afm/phvb8a.afm'
p1876
aS'/System/Library/Frameworks/Python.framework/Versions/2.7/Extras/lib/python/matplotlib/mpl-data/fonts/afm/pbkli8a.afm'
p1877
aS'/System/Library/Frameworks/Python.framework/Versions/2.7/Extras/lib/python/matplotlib/mpl-data/fonts/afm/pcrr8a.afm'
p1878
aS'/System/Library/Frameworks/Python.framework/Versions/2.7/Extras/lib/python/matplotlib/mpl-data/fonts/afm/pzdr.afm'
p1879
aS'/System/Library/Frameworks/Python.framework/Versions/2.7/Extras/lib/python/matplotlib/mpl-data/fonts/afm/cmsy10.afm'
p1880
aS'/System/Library/Frameworks/Python.framework/Versions/2.7/Extras/lib/python/matplotlib/mpl-data/fonts/afm/cmmi10.afm'
p1881
aS'/System/Library/Frameworks/Python.framework/Versions/2.7/Extras/lib/python/matplotlib/mpl-data/fonts/afm/pplbi8a.afm'
p1882
aS'/System/Library/Frameworks/Python.framework/Versions/2.7/Extras/lib/python/matplotlib/mpl-data/fonts/afm/cmex10.afm'
p1883
aS'/System/Library/Frameworks/Python.framework/Versions/2.7/Extras/lib/python/matplotlib/mpl-data/fonts/afm/pncri8a.afm'
p1884
aS'/System/Library/Frameworks/Python.framework/Versions/2.7/Extras/lib/python/matplotlib/mpl-data/fonts/afm/ptmri8a.afm'
p1885
aS'/System/Library/Frameworks/Python.framework/Versions/2.7/Extras/lib/python/matplotlib/mpl-data/fonts/afm/pzcmi8a.afm'
p1886
aS'/System/Library/Frameworks/Python.framework/Versions/2.7/Extras/lib/python/matplotlib/mpl-data/fonts/pdfcorefonts/Courier-BoldOblique.afm'
p1887
aS'/System/Library/Frameworks/Python.framework/Versions/2.7/Extras/lib/python/matplotlib/mpl-data/fonts/afm/phvro8an.afm'
p1888
aS'/System/Library/Frameworks/Python.framework/Versions/2.7/Extras/lib/python/matplotlib/mpl-data/fonts/afm/pplb8a.afm'
p1889
asS'afmlist'
p1890
(lp1891
g7
(g8
g9
NtRp1892
(dp1893
g12
g13
sg14
S'Helvetica'
p1894
sg16
I200
sg17
g13
sg18
g13
sg19
g1828
sg21
g22
sbag7
(g8
g9
NtRp1895
(dp1896
g12
g74
sg14
S'Utopia'
p1897
sg16
I700
sg17
g13
sg18
g13
sg19
g1831
sg21
g22
sbag7
(g8
g9
NtRp1898
(dp1899
g12
g13
sg14
S'Courier'
p1900
sg16
I700
sg17
g13
sg18
g13
sg19
g1832
sg21
g22
sbag7
(g8
g9
NtRp1901
(dp1902
g12
g74
sg14
S'Helvetica'
p1903
sg16
I700
sg17
g13
sg18
g13
sg19
g1833
sg21
g22
sbag7
(g8
g9
NtRp1904
(dp1905
g12
g13
sg14
S'Helvetica'
p1906
sg16
I700
sg17
g192
sg18
g13
sg19
g1834
sg21
g22
sbag7
(g8
g9
NtRp1907
(dp1908
g12
g13
sg14
S'Symbol'
p1909
sg16
I500
sg17
g13
sg18
g13
sg19
g1835
sg21
g22
sbag7
(g8
g9
NtRp1910
(dp1911
g12
g74
sg14
S'Helvetica'
p1912
sg16
I700
sg17
g192
sg18
g13
sg19
g1836
sg21
g22
sbag7
(g8
g9
NtRp1913
(dp1914
g12
g13
sg14
S'Times'
p1915
sg16
I500
sg17
g13
sg18
g13
sg19
g1837
sg21
g22
sbag7
(g8
g9
NtRp1916
(dp1917
g12
g13
sg14
S'New Century Schoolbook'
p1918
sg16
I500
sg17
g13
sg18
g13
sg19
g1838
sg21
g22
sbag7
(g8
g9
NtRp1919
(dp1920
g12
g74
sg14
S'Helvetica'
p1921
sg16
I200
sg17
g13
sg18
g13
sg19
g1839
sg21
g22
sbag7
(g8
g9
NtRp1922
(dp1923
g12
g74
sg14
S'Times'
p1924
sg16
I500
sg17
g13
sg18
g13
sg19
g1840
sg21
g22
sbag7
(g8
g9
NtRp1925
(dp1926
g12
g13
sg14
S'Helvetica'
p1927
sg16
I500
sg17
g13
sg18
g13
sg19
g1841
sg21
g22
sbag7
(g8
g9
NtRp1928
(dp1929
g12
g13
sg14
S'Helvetica'
p1930
sg16
I500
sg17
g192
sg18
g13
sg19
g1842
sg21
g22
sbag7
(g8
g9
NtRp1931
(dp1932
g12
g13
sg14
S'Courier'
p1933
sg16
I700
sg17
g13
sg18
g13
sg19
g1843
sg21
g22
sbag7
(g8
g9
NtRp1934
(dp1935
g12
g13
sg14
S'Helvetica'
p1936
sg16
I700
sg17
g13
sg18
g13
sg19
g1844
sg21
g22
sbag7
(g8
g9
NtRp1937
(dp1938
g12
g13
sg14
S'Times'
p1939
sg16
I700
sg17
g13
sg18
g13
sg19
g1845
sg21
g22
sbag7
(g8
g9
NtRp1940
(dp1941
g12
g13
sg14
S'ITC Avant Garde Gothic'
p1942
sg16
I600
sg17
g13
sg18
g13
sg19
g1846
sg21
g22
sbag7
(g8
g9
NtRp1943
(dp1944
g12
g13
sg14
S'ZapfDingbats'
p1945
sg16
I500
sg17
g13
sg18
g13
sg19
g1847
sg21
g22
sbag7
(g8
g9
NtRp1946
(dp1947
g12
g13
sg14
S'Utopia'
p1948
sg16
I400
sg17
g13
sg18
g13
sg19
g1848
sg21
g22
sbag7
(g8
g9
NtRp1949
(dp1950
g12
g13
sg14
S'Computer Modern'
p1951
sg16
I500
sg17
g13
sg18
g13
sg19
g1849
sg21
g22
sbag7
(g8
g9
NtRp1952
(dp1953
g12
g74
sg14
S'ITC Avant Garde Gothic'
p1954
sg16
I400
sg17
g13
sg18
g13
sg19
g1850
sg21
g22
sbag7
(g8
g9
NtRp1955
(dp1956
g12
g13
sg14
S'Times'
p1957
sg16
I500
sg17
g13
sg18
g13
sg19
g1851
sg21
g22
sbag7
(g8
g9
NtRp1958
(dp1959
g12
g74
sg14
S'Helvetica'
p1960
sg16
I500
sg17
g13
sg18
g13
sg19
g1852
sg21
g22
sbag7
(g8
g9
NtRp1961
(dp1962
g12
g13
sg14
S'Computer Modern'
p1963
sg16
I500
sg17
g13
sg18
g13
sg19
g1853
sg21
g22
sbag7
(g8
g9
NtRp1964
(dp1965
g12
g74
sg14
S'Courier'
p1966
sg16
I500
sg17
g13
sg18
g13
sg19
g1854
sg21
g22
sbag7
(g8
g9
NtRp1967
(dp1968
g12
g74
sg14
S'Courier'
p1969
sg16
I500
sg17
g13
sg18
g13
sg19
g1855
sg21
g22
sbag7
(g8
g9
NtRp1970
(dp1971
g12
g74
sg14
S'Courier'
p1972
sg16
I700
sg17
g13
sg18
g13
sg19
g1856
sg21
g22
sbag7
(g8
g9
NtRp1973
(dp1974
g12
g13
sg14
S'Courier'
p1975
sg16
I500
sg17
g13
sg18
g13
sg19
g1857
sg21
g22
sbag7
(g8
g9
NtRp1976
(dp1977
g12
g74
sg14
S'Times'
p1978
sg16
I700
sg17
g13
sg18
g13
sg19
g1858
sg21
g22
sbag7
(g8
g9
NtRp1979
(dp1980
g12
g74
sg14
S'ITC Avant Garde Gothic'
p1981
sg16
I600
sg17
g13
sg18
g13
sg19
g1859
sg21
g22
sbag7
(g8
g9
NtRp1982
(dp1983
g12
g74
sg14
S'Times'
p1984
sg16
I700
sg17
g13
sg18
g13
sg19
g1860
sg21
g22
sbag7
(g8
g9
NtRp1985
(dp1986
g12
g74
sg14
S'Helvetica'
p1987
sg16
I700
sg17
g13
sg18
g13
sg19
g1861
sg21
g22
sbag7
(g8
g9
NtRp1988
(dp1989
g12
g13
sg14
S'ITC Bookman'
p1990
sg16
I600
sg17
g13
sg18
g13
sg19
g1862
sg21
g22
sbag7
(g8
g9
NtRp1991
(dp1992
g12
g13
sg14
S'Palatino'
p1993
sg16
I500
sg17
g13
sg18
g13
sg19
g1863
sg21
g22
sbag7
(g8
g9
NtRp1994
(dp1995
g12
g74
sg14
S'ITC Bookman'
p1996
sg16
I600
sg17
g13
sg18
g13
sg19
g1864
sg21
g22
sbag7
(g8
g9
NtRp1997
(dp1998
g12
g13
sg14
S'ITC Avant Garde Gothic'
p1999
sg16
I400
sg17
g13
sg18
g13
sg19
g1865
sg21
g22
sbag7
(g8
g9
NtRp2000
(dp2001
g12
g74
sg14
S'Utopia'
p2002
sg16
I400
sg17
g13
sg18
g13
sg19
g1866
sg21
g22
sbag7
(g8
g9
NtRp2003
(dp2004
g12
g13
sg14
S'Helvetica'
p2005
sg16
I500
sg17
g13
sg18
g13
sg19
g1867
sg21
g22
sbag7
(g8
g9
NtRp2006
(dp2007
g12
g13
sg14
S'ITC Bookman'
p2008
sg16
I200
sg17
g13
sg18
g13
sg19
g1868
sg21
g22
sbag7
(g8
g9
NtRp2009
(dp2010
g12
g74
sg14
S'Helvetica'
p2011
sg16
I500
sg17
g13
sg18
g13
sg19
g1869
sg21
g22
sbag7
(g8
g9
NtRp2012
(dp2013
g12
g13
sg14
S'Symbol'
p2014
sg16
I500
sg17
g13
sg18
g13
sg19
g1870
sg21
g22
sbag7
(g8
g9
NtRp2015
(dp2016
g12
g13
sg14
S'Times'
p2017
sg16
I700
sg17
g13
sg18
g13
sg19
g1871
sg21
g22
sbag7
(g8
g9
NtRp2018
(dp2019
g12
g74
sg14
S'Palatino'
p2020
sg16
I500
sg17
g13
sg18
g13
sg19
g1872
sg21
g22
sbag7
(g8
g9
NtRp2021
(dp2022
g12
g13
sg14
S'New Century Schoolbook'
p2023
sg16
I700
sg17
g13
sg18
g13
sg19
g1873
sg21
g22
sbag7
(g8
g9
NtRp2024
(dp2025
g12
g13
sg14
S'Utopia'
p2026
sg16
I700
sg17
g13
sg18
g13
sg19
g1874
sg21
g22
sbag7
(g8
g9
NtRp2027
(dp2028
g12
g74
sg14
S'New Century Schoolbook'
p2029
sg16
I700
sg17
g13
sg18
g13
sg19
g1875
sg21
g22
sbag7
(g8
g9
NtRp2030
(dp2031
g12
g13
sg14
S'Helvetica'
p2032
sg16
I700
sg17
g13
sg18
g13
sg19
g1876
sg21
g22
sbag7
(g8
g9
NtRp2033
(dp2034
g12
g74
sg14
S'ITC Bookman'
p2035
sg16
I200
sg17
g13
sg18
g13
sg19
g1877
sg21
g22
sbag7
(g8
g9
NtRp2036
(dp2037
g12
g13
sg14
S'Courier'
p2038
sg16
I500
sg17
g13
sg18
g13
sg19
g1878
sg21
g22
sbag7
(g8
g9
NtRp2039
(dp2040
g12
g13
sg14
S'ITC Zapf Dingbats'
p2041
sg16
I500
sg17
g13
sg18
g13
sg19
g1879
sg21
g22
sbag7
(g8
g9
NtRp2042
(dp2043
g12
g74
sg14
S'Computer Modern'
p2044
sg16
I500
sg17
g13
sg18
g13
sg19
g1880
sg21
g22
sbag7
(g8
g9
NtRp2045
(dp2046
g12
g74
sg14
S'Computer Modern'
p2047
sg16
I500
sg17
g13
sg18
g13
sg19
g1881
sg21
g22
sbag7
(g8
g9
NtRp2048
(dp2049
g12
g74
sg14
S'Palatino'
p2050
sg16
I700
sg17
g13
sg18
g13
sg19
g1882
sg21
g22
sbag7
(g8
g9
NtRp2051
(dp2052
g12
g13
sg14
S'Computer Modern'
p2053
sg16
I500
sg17
g13
sg18
g13
sg19
g1883
sg21
g22
sbag7
(g8
g9
NtRp2054
(dp2055
g12
g74
sg14
S'New Century Schoolbook'
p2056
sg16
I500
sg17
g13
sg18
g13
sg19
g1884
sg21
g22
sbag7
(g8
g9
NtRp2057
(dp2058
g12
g74
sg14
S'Times'
p2059
sg16
I500
sg17
g13
sg18
g13
sg19
g1885
sg21
g22
sbag7
(g8
g9
NtRp2060
(dp2061
g12
g74
sg14
S'ITC Zapf Chancery'
p2062
sg16
I500
sg17
g13
sg18
g13
sg19
g1886
sg21
g22
sbag7
(g8
g9
NtRp2063
(dp2064
g12
g74
sg14
S'Courier'
p2065
sg16
I700
sg17
g13
sg18
g13
sg19
g1887
sg21
g22
sbag7
(g8
g9
NtRp2066
(dp2067
g12
g74
sg14
S'Helvetica'
p2068
sg16
I500
sg17
g192
sg18
g13
sg19
g1888
sg21
g22
sbag7
(g8
g9
NtRp2069
(dp2070
g12
g13
sg14
S'Palatino'
p2071
sg16
I700
sg17
g13
sg18
g13
sg19
g1889
sg21
g22
sbasb.